---
triple:          'arm64-apple-darwin'
binary-path:     '/Users/tianyuhuang/codes/cs764/FINAL/CS764/CS764start/Test'
relocations:
  - { offsetInCU: 0x26, offset: 0x26, size: 0x8, addend: 0x0, symName: __Z6AssertbPKci, symObjAddr: 0x0, symBinAddr: 0x100001350, symSize: 0x90 }
  - { offsetInCU: 0x2C87, offset: 0x2C87, size: 0x8, addend: 0x0, symName: __Z6AssertbPKci, symObjAddr: 0x0, symBinAddr: 0x100001350, symSize: 0x90 }
  - { offsetInCU: 0x3F, offset: 0x2D19, size: 0x8, addend: 0x0, symName: __ZL11ITEM_FIELDS, symObjAddr: 0x3DF30, symBinAddr: 0x100020000, symSize: 0x0 }
  - { offsetInCU: 0x42DF, offset: 0x6FB9, size: 0x8, addend: 0x0, symName: __ZNSt3__16copy_nB7v160006IPKcmPcEENS_9enable_ifIXsr33__is_cpp17_random_access_iteratorIT_EE5valueET1_E4typeES5_T0_S6_, symObjAddr: 0x3280, symBinAddr: 0x100004660, symSize: 0x44 }
  - { offsetInCU: 0x4366, offset: 0x7040, size: 0x8, addend: 0x0, symName: __ZNSt3__124__put_character_sequenceB7v160006IcNS_11char_traitsIcEEEERNS_13basic_ostreamIT_T0_EES7_PKS4_m, symObjAddr: 0x3AA8, symBinAddr: 0x100004E88, symSize: 0x1EC }
  - { offsetInCU: 0x862F, offset: 0xB309, size: 0x8, addend: 0x0, symName: __ZNSt3__14endlB7v160006IcNS_11char_traitsIcEEEERNS_13basic_ostreamIT_T0_EES7_, symObjAddr: 0xA50, symBinAddr: 0x100001E30, symSize: 0x58 }
  - { offsetInCU: 0x866F, offset: 0xB349, size: 0x8, addend: 0x0, symName: __ZNSt3__1lsB7v160006IcNS_11char_traitsIcEENS_9allocatorIcEEEERNS_13basic_ostreamIT_T0_EES9_RKNS_12basic_stringIS6_S7_T1_EE, symObjAddr: 0xAA8, symBinAddr: 0x100001E88, symSize: 0x4C }
  - { offsetInCU: 0x86C7, offset: 0xB3A1, size: 0x8, addend: 0x0, symName: __ZNSt3__1plB7v160006IcNS_11char_traitsIcEENS_9allocatorIcEEEENS_12basic_stringIT_T0_T1_EERKS9_PKS6_, symObjAddr: 0xAF4, symBinAddr: 0x100001ED4, symSize: 0x11C }
  - { offsetInCU: 0x8956, offset: 0xB630, size: 0x8, addend: 0x0, symName: __ZNSt3__122__make_exception_guardB7v160006INS_6vectorI9ItemFieldNS_9allocatorIS2_EEE16__destroy_vectorEEENS_28__exception_guard_exceptionsIT_EES8_, symObjAddr: 0x10E0, symBinAddr: 0x1000024C0, symSize: 0x40 }
  - { offsetInCU: 0x898B, offset: 0xB665, size: 0x8, addend: 0x0, symName: __ZNSt3__119__debug_db_insert_cB7v160006INS_6vectorI9ItemFieldNS_9allocatorIS2_EEEEEEvPT_, symObjAddr: 0x1154, symBinAddr: 0x100002534, symSize: 0x10 }
  - { offsetInCU: 0x89BC, offset: 0xB696, size: 0x8, addend: 0x0, symName: __ZNSt3__119__allocate_at_leastB7v160006INS_9allocatorI9ItemFieldEEEENS_19__allocation_resultINS_16allocator_traitsIT_E7pointerEEERS6_m, symObjAddr: 0x14F0, symBinAddr: 0x1000028D0, symSize: 0x40 }
  - { offsetInCU: 0x89FF, offset: 0xB6D9, size: 0x8, addend: 0x0, symName: __ZNSt3__13minB7v160006ImEERKT_S3_S3_, symObjAddr: 0x162C, symBinAddr: 0x100002A0C, symSize: 0x2C }
  - { offsetInCU: 0x8C43, offset: 0xB91D, size: 0x8, addend: 0x0, symName: __ZNSt3__13minB7v160006ImNS_6__lessImmEEEERKT_S5_S5_T0_, symObjAddr: 0x16B8, symBinAddr: 0x100002A98, symSize: 0x54 }
  - { offsetInCU: 0x8CD8, offset: 0xB9B2, size: 0x8, addend: 0x0, symName: __ZNSt3__120__throw_length_errorB7v160006EPKc, symObjAddr: 0x1794, symBinAddr: 0x100002B74, symSize: 0x64 }
  - { offsetInCU: 0x8D01, offset: 0xB9DB, size: 0x8, addend: 0x0, symName: __ZNSt3__117__libcpp_allocateB7v160006Emm, symObjAddr: 0x1904, symBinAddr: 0x100002CE4, symSize: 0x28 }
  - { offsetInCU: 0x8D3E, offset: 0xBA18, size: 0x8, addend: 0x0, symName: __ZNSt3__121__libcpp_operator_newB7v160006IJmEEEPvDpT_, symObjAddr: 0x192C, symBinAddr: 0x100002D0C, symSize: 0x24 }
  - { offsetInCU: 0x8D77, offset: 0xBA51, size: 0x8, addend: 0x0, symName: __ZNSt3__112__to_addressB7v160006I9ItemFieldEEPT_S3_, symObjAddr: 0x1A48, symBinAddr: 0x100002E28, symSize: 0x14 }
  - { offsetInCU: 0x8DAD, offset: 0xBA87, size: 0x8, addend: 0x0, symName: __ZNSt3__130__uninitialized_allocator_copyB7v160006INS_9allocatorI9ItemFieldEES2_S2_LPv0EEEPT0_RT_PKS5_SA_S6_, symObjAddr: 0x1AF8, symBinAddr: 0x100002ED8, symSize: 0x38 }
  - { offsetInCU: 0x8E26, offset: 0xBB00, size: 0x8, addend: 0x0, symName: __ZNSt3__14copyB7v160006IPK9ItemFieldPS1_EET0_T_S6_S5_, symObjAddr: 0x1BA0, symBinAddr: 0x100002F80, symSize: 0x40 }
  - { offsetInCU: 0x8E80, offset: 0xBB5A, size: 0x8, addend: 0x0, symName: __ZNSt3__16__copyB7v160006INS_17_ClassicAlgPolicyEPK9ItemFieldS4_PS2_EENS_4pairIT0_T2_EES7_T1_S8_, symObjAddr: 0x1BE0, symBinAddr: 0x100002FC0, symSize: 0x44 }
  - { offsetInCU: 0x8EEC, offset: 0xBBC6, size: 0x8, addend: 0x0, symName: __ZNSt3__123__dispatch_copy_or_moveB7v160006INS_17_ClassicAlgPolicyENS_11__copy_loopIS1_EENS_14__copy_trivialEPK9ItemFieldS7_PS5_EENS_4pairIT2_T4_EESA_T3_SB_, symObjAddr: 0x1C24, symBinAddr: 0x100003004, symSize: 0x44 }
  - { offsetInCU: 0x8F6A, offset: 0xBC44, size: 0x8, addend: 0x0, symName: __ZNSt3__121__unwrap_and_dispatchB7v160006INS_10__overloadINS_11__copy_loopINS_17_ClassicAlgPolicyEEENS_14__copy_trivialEEEPK9ItemFieldS9_PS7_Li0EEENS_4pairIT0_T2_EESC_T1_SD_, symObjAddr: 0x1C68, symBinAddr: 0x100003048, symSize: 0xB4 }
  - { offsetInCU: 0x8FF8, offset: 0xBCD2, size: 0x8, addend: 0x0, symName: __ZNSt3__114__unwrap_rangeB7v160006IPK9ItemFieldS3_EENS_4pairIT0_S5_EET_S7_, symObjAddr: 0x1D1C, symBinAddr: 0x1000030FC, symSize: 0x60 }
  - { offsetInCU: 0x91C9, offset: 0xBEA3, size: 0x8, addend: 0x0, symName: __ZNSt3__113__unwrap_iterB7v160006IP9ItemFieldNS_18__unwrap_iter_implIS2_Lb1EEELi0EEEDTclsrT0_8__unwrapclsr3stdE7declvalIT_EEEES6_, symObjAddr: 0x1DC4, symBinAddr: 0x1000031A4, symSize: 0x24 }
  - { offsetInCU: 0x920D, offset: 0xBEE7, size: 0x8, addend: 0x0, symName: __ZNSt3__19make_pairB7v160006IPK9ItemFieldPS1_EENS_4pairINS_18__unwrap_ref_decayIT_E4typeENS6_IT0_E4typeEEEOS7_OSA_, symObjAddr: 0x1DE8, symBinAddr: 0x1000031C8, symSize: 0x38 }
  - { offsetInCU: 0x925C, offset: 0xBF36, size: 0x8, addend: 0x0, symName: __ZNSt3__114__rewrap_rangeB7v160006IPK9ItemFieldS3_EET_S4_T0_, symObjAddr: 0x1E20, symBinAddr: 0x100003200, symSize: 0x2C }
  - { offsetInCU: 0x92A8, offset: 0xBF82, size: 0x8, addend: 0x0, symName: __ZNSt3__113__rewrap_iterB7v160006IP9ItemFieldS2_NS_18__unwrap_iter_implIS2_Lb1EEEEET_S5_T0_, symObjAddr: 0x1E4C, symBinAddr: 0x10000322C, symSize: 0x3C }
  - { offsetInCU: 0x92FD, offset: 0xBFD7, size: 0x8, addend: 0x0, symName: __ZNSt3__19make_pairB7v160006IPK9ItemFieldS3_EENS_4pairINS_18__unwrap_ref_decayIT_E4typeENS5_IT0_E4typeEEEOS6_OS9_, symObjAddr: 0x1E88, symBinAddr: 0x100003268, symSize: 0x38 }
  - { offsetInCU: 0x934C, offset: 0xC026, size: 0x8, addend: 0x0, symName: __ZNSt3__113__unwrap_iterB7v160006IPK9ItemFieldNS_18__unwrap_iter_implIS3_Lb1EEELi0EEEDTclsrT0_8__unwrapclsr3stdE7declvalIT_EEEES7_, symObjAddr: 0x1EC0, symBinAddr: 0x1000032A0, symSize: 0x24 }
  - { offsetInCU: 0x94B7, offset: 0xC191, size: 0x8, addend: 0x0, symName: __ZNSt3__112__to_addressB7v160006IK9ItemFieldEEPT_S4_, symObjAddr: 0x1F78, symBinAddr: 0x100003358, symSize: 0x14 }
  - { offsetInCU: 0x94ED, offset: 0xC1C7, size: 0x8, addend: 0x0, symName: __ZNSt3__119__copy_trivial_implB7v160006IK9ItemFieldS1_EENS_4pairIPT_PT0_EES5_S5_S7_, symObjAddr: 0x1F8C, symBinAddr: 0x10000336C, symSize: 0x84 }
  - { offsetInCU: 0x9555, offset: 0xC22F, size: 0x8, addend: 0x0, symName: __ZNSt3__19make_pairB7v160006IRPK9ItemFieldPS1_EENS_4pairINS_18__unwrap_ref_decayIT_E4typeENS7_IT0_E4typeEEEOS8_OSB_, symObjAddr: 0x2010, symBinAddr: 0x1000033F0, symSize: 0x38 }
  - { offsetInCU: 0x95F7, offset: 0xC2D1, size: 0x8, addend: 0x0, symName: __ZNSt3__113__rewrap_iterB7v160006IPK9ItemFieldS3_NS_18__unwrap_iter_implIS3_Lb1EEEEET_S6_T0_, symObjAddr: 0x214C, symBinAddr: 0x10000352C, symSize: 0x3C }
  - { offsetInCU: 0x964C, offset: 0xC326, size: 0x8, addend: 0x0, symName: __ZNSt3__118__debug_db_erase_cB7v160006INS_6vectorI9ItemFieldNS_9allocatorIS2_EEEEEEvPT_, symObjAddr: 0x23EC, symBinAddr: 0x1000037CC, symSize: 0x10 }
  - { offsetInCU: 0x967D, offset: 0xC357, size: 0x8, addend: 0x0, symName: __ZNSt3__119__libcpp_deallocateB7v160006EPvmm, symObjAddr: 0x258C, symBinAddr: 0x10000396C, symSize: 0x30 }
  - { offsetInCU: 0x96C6, offset: 0xC3A0, size: 0x8, addend: 0x0, symName: __ZNSt3__127__do_deallocate_handle_sizeB7v160006IJEEEvPvmDpT_, symObjAddr: 0x25BC, symBinAddr: 0x10000399C, symSize: 0x28 }
  - { offsetInCU: 0x9705, offset: 0xC3DF, size: 0x8, addend: 0x0, symName: __ZNSt3__124__libcpp_operator_deleteB7v160006IJPvEEEvDpT_, symObjAddr: 0x25E4, symBinAddr: 0x1000039C4, symSize: 0x24 }
  - { offsetInCU: 0x973B, offset: 0xC415, size: 0x8, addend: 0x0, symName: __ZNSt3__119__debug_db_insert_cB7v160006INS_12basic_stringIcNS_11char_traitsIcEENS_9allocatorIcEEEEEEvPT_, symObjAddr: 0x271C, symBinAddr: 0x100003AFC, symSize: 0x10 }
  - { offsetInCU: 0x976C, offset: 0xC446, size: 0x8, addend: 0x0, symName: __ZNSt3__118__constexpr_strlenB7v160006EPKc, symObjAddr: 0x27E8, symBinAddr: 0x100003BC8, symSize: 0x24 }
  - { offsetInCU: 0x9798, offset: 0xC472, size: 0x8, addend: 0x0, symName: __ZNSt3__19use_facetB7v160006INS_5ctypeIcEEEERKT_RKNS_6localeE, symObjAddr: 0x2890, symBinAddr: 0x100003C70, symSize: 0x2C }
  - { offsetInCU: 0x9C67, offset: 0xC941, size: 0x8, addend: 0x0, symName: __ZNSt3__112__to_addressB7v160006IcEEPT_S2_, symObjAddr: 0x29B8, symBinAddr: 0x100003D98, symSize: 0x14 }
  - { offsetInCU: 0x9ED2, offset: 0xCBAC, size: 0x8, addend: 0x0, symName: __ZNSt3__14copyB7v160006IPKcPcEET0_T_S5_S4_, symObjAddr: 0x32C4, symBinAddr: 0x1000046A4, symSize: 0x40 }
  - { offsetInCU: 0x9F2C, offset: 0xCC06, size: 0x8, addend: 0x0, symName: __ZNSt3__16__copyB7v160006INS_17_ClassicAlgPolicyEPKcS3_PcEENS_4pairIT0_T2_EES6_T1_S7_, symObjAddr: 0x3304, symBinAddr: 0x1000046E4, symSize: 0x44 }
  - { offsetInCU: 0x9F98, offset: 0xCC72, size: 0x8, addend: 0x0, symName: __ZNSt3__123__dispatch_copy_or_moveB7v160006INS_17_ClassicAlgPolicyENS_11__copy_loopIS1_EENS_14__copy_trivialEPKcS6_PcEENS_4pairIT2_T4_EES9_T3_SA_, symObjAddr: 0x3348, symBinAddr: 0x100004728, symSize: 0x44 }
  - { offsetInCU: 0xA016, offset: 0xCCF0, size: 0x8, addend: 0x0, symName: __ZNSt3__121__unwrap_and_dispatchB7v160006INS_10__overloadINS_11__copy_loopINS_17_ClassicAlgPolicyEEENS_14__copy_trivialEEEPKcS8_PcLi0EEENS_4pairIT0_T2_EESB_T1_SC_, symObjAddr: 0x338C, symBinAddr: 0x10000476C, symSize: 0xB4 }
  - { offsetInCU: 0xA0A4, offset: 0xCD7E, size: 0x8, addend: 0x0, symName: __ZNSt3__114__unwrap_rangeB7v160006IPKcS2_EENS_4pairIT0_S4_EET_S6_, symObjAddr: 0x3440, symBinAddr: 0x100004820, symSize: 0x60 }
  - { offsetInCU: 0xA1F3, offset: 0xCECD, size: 0x8, addend: 0x0, symName: __ZNSt3__113__unwrap_iterB7v160006IPcNS_18__unwrap_iter_implIS1_Lb1EEELi0EEEDTclsrT0_8__unwrapclsr3stdE7declvalIT_EEEES5_, symObjAddr: 0x34E8, symBinAddr: 0x1000048C8, symSize: 0x24 }
  - { offsetInCU: 0xA237, offset: 0xCF11, size: 0x8, addend: 0x0, symName: __ZNSt3__19make_pairB7v160006IPKcPcEENS_4pairINS_18__unwrap_ref_decayIT_E4typeENS5_IT0_E4typeEEEOS6_OS9_, symObjAddr: 0x350C, symBinAddr: 0x1000048EC, symSize: 0x38 }
  - { offsetInCU: 0xA286, offset: 0xCF60, size: 0x8, addend: 0x0, symName: __ZNSt3__114__rewrap_rangeB7v160006IPKcS2_EET_S3_T0_, symObjAddr: 0x3544, symBinAddr: 0x100004924, symSize: 0x2C }
  - { offsetInCU: 0xA2D2, offset: 0xCFAC, size: 0x8, addend: 0x0, symName: __ZNSt3__113__rewrap_iterB7v160006IPcS1_NS_18__unwrap_iter_implIS1_Lb1EEEEET_S4_T0_, symObjAddr: 0x3570, symBinAddr: 0x100004950, symSize: 0x3C }
  - { offsetInCU: 0xA327, offset: 0xD001, size: 0x8, addend: 0x0, symName: __ZNSt3__19make_pairB7v160006IPKcS2_EENS_4pairINS_18__unwrap_ref_decayIT_E4typeENS4_IT0_E4typeEEEOS5_OS8_, symObjAddr: 0x35AC, symBinAddr: 0x10000498C, symSize: 0x38 }
  - { offsetInCU: 0xA376, offset: 0xD050, size: 0x8, addend: 0x0, symName: __ZNSt3__113__unwrap_iterB7v160006IPKcNS_18__unwrap_iter_implIS2_Lb1EEELi0EEEDTclsrT0_8__unwrapclsr3stdE7declvalIT_EEEES6_, symObjAddr: 0x35E4, symBinAddr: 0x1000049C4, symSize: 0x24 }
  - { offsetInCU: 0xA4E1, offset: 0xD1BB, size: 0x8, addend: 0x0, symName: __ZNSt3__112__to_addressB7v160006IKcEEPT_S3_, symObjAddr: 0x369C, symBinAddr: 0x100004A7C, symSize: 0x14 }
  - { offsetInCU: 0xA517, offset: 0xD1F1, size: 0x8, addend: 0x0, symName: __ZNSt3__119__copy_trivial_implB7v160006IKccEENS_4pairIPT_PT0_EES4_S4_S6_, symObjAddr: 0x36B0, symBinAddr: 0x100004A90, symSize: 0x7C }
  - { offsetInCU: 0xA57F, offset: 0xD259, size: 0x8, addend: 0x0, symName: __ZNSt3__19make_pairB7v160006IRPKcPcEENS_4pairINS_18__unwrap_ref_decayIT_E4typeENS6_IT0_E4typeEEEOS7_OSA_, symObjAddr: 0x372C, symBinAddr: 0x100004B0C, symSize: 0x38 }
  - { offsetInCU: 0xA621, offset: 0xD2FB, size: 0x8, addend: 0x0, symName: __ZNSt3__113__rewrap_iterB7v160006IPKcS2_NS_18__unwrap_iter_implIS2_Lb1EEEEET_S5_T0_, symObjAddr: 0x3868, symBinAddr: 0x100004C48, symSize: 0x3C }
  - { offsetInCU: 0xA6A9, offset: 0xD383, size: 0x8, addend: 0x0, symName: __ZNSt3__16fill_nB7v160006IPcmcEET_S2_T0_RKT1_, symObjAddr: 0x39EC, symBinAddr: 0x100004DCC, symSize: 0x44 }
  - { offsetInCU: 0xA70C, offset: 0xD3E6, size: 0x8, addend: 0x0, symName: __ZNSt3__18__fill_nB7v160006IPcmcEET_S2_T0_RKT1_, symObjAddr: 0x3A30, symBinAddr: 0x100004E10, symSize: 0x64 }
  - { offsetInCU: 0xA770, offset: 0xD44A, size: 0x8, addend: 0x0, symName: __ZNSt3__121__convert_to_integralB7v160006Em, symObjAddr: 0x3A94, symBinAddr: 0x100004E74, symSize: 0x14 }
  - { offsetInCU: 0xA79D, offset: 0xD477, size: 0x8, addend: 0x0, symName: __ZNSt3__116__pad_and_outputB7v160006IcNS_11char_traitsIcEEEENS_19ostreambuf_iteratorIT_T0_EES6_PKS4_S8_S8_RNS_8ios_baseES4_, symObjAddr: 0x3CB0, symBinAddr: 0x100005090, symSize: 0x240 }
  - { offsetInCU: 0xAC69, offset: 0xD943, size: 0x8, addend: 0x0, symName: __ZNSt3__122__libcpp_thread_createB7v160006EPP17_opaque_pthread_tPFPvS3_ES3_, symObjAddr: 0x4400, symBinAddr: 0x1000057E0, symSize: 0x38 }
  - { offsetInCU: 0xACB5, offset: 0xD98F, size: 0x8, addend: 0x0, symName: __ZNSt3__114__thread_proxyB7v160006INS_5tupleIJNS_10unique_ptrINS_15__thread_structENS_14default_deleteIS3_EEEEM12SharedBufferFvP4FileEPS7_S9_EEEEEPvSE_, symObjAddr: 0x4438, symBinAddr: 0x100005818, symSize: 0x90 }
  - { offsetInCU: 0xAE21, offset: 0xDAFB, size: 0x8, addend: 0x0, symName: __ZNSt3__13getB7v160006ILm0EJNS_10unique_ptrINS_15__thread_structENS_14default_deleteIS2_EEEEM12SharedBufferFvP4FileEPS6_S8_EEERNS_13tuple_elementIXT_ENS_5tupleIJDpT0_EEEE4typeERSG_, symObjAddr: 0x4B84, symBinAddr: 0x100005F64, symSize: 0x24 }
  - { offsetInCU: 0xAE73, offset: 0xDB4D, size: 0x8, addend: 0x0, symName: __ZNSt3__116__thread_executeB7v160006INS_10unique_ptrINS_15__thread_structENS_14default_deleteIS2_EEEEM12SharedBufferFvP4FileEJPS6_S8_EJLm2ELm3EEEEvRNS_5tupleIJT_T0_DpT1_EEENS_15__tuple_indicesIJXspT2_EEEE, symObjAddr: 0x4BA8, symBinAddr: 0x100005F88, symSize: 0x4C }
  - { offsetInCU: 0xAEDE, offset: 0xDBB8, size: 0x8, addend: 0x0, symName: __ZNSt3__116__libcpp_tls_setB7v160006EmPv, symObjAddr: 0x4BF4, symBinAddr: 0x100005FD4, symSize: 0x2C }
  - { offsetInCU: 0xAF1B, offset: 0xDBF5, size: 0x8, addend: 0x0, symName: __ZNSt3__18__invokeB7v160006IM12SharedBufferFvP4FileEPS1_JS3_EvEEDTcldsdeclsr3stdE7declvalIT0_EEclsr3stdE7declvalIT_EEspclsr3stdE7declvalIT1_EEEEOS8_OS7_DpOS9_, symObjAddr: 0x4C34, symBinAddr: 0x100006014, symSize: 0x8C }
  - { offsetInCU: 0xAF82, offset: 0xDC5C, size: 0x8, addend: 0x0, symName: __ZNSt3__13getB7v160006ILm1EJNS_10unique_ptrINS_15__thread_structENS_14default_deleteIS2_EEEEM12SharedBufferFvP4FileEPS6_S8_EEERNS_13tuple_elementIXT_ENS_5tupleIJDpT0_EEEE4typeERSG_, symObjAddr: 0x4CC0, symBinAddr: 0x1000060A0, symSize: 0x28 }
  - { offsetInCU: 0xAFD4, offset: 0xDCAE, size: 0x8, addend: 0x0, symName: __ZNSt3__13getB7v160006ILm2EJNS_10unique_ptrINS_15__thread_structENS_14default_deleteIS2_EEEEM12SharedBufferFvP4FileEPS6_S8_EEERNS_13tuple_elementIXT_ENS_5tupleIJDpT0_EEEE4typeERSG_, symObjAddr: 0x4CE8, symBinAddr: 0x1000060C8, symSize: 0x28 }
  - { offsetInCU: 0xB026, offset: 0xDD00, size: 0x8, addend: 0x0, symName: __ZNSt3__13getB7v160006ILm3EJNS_10unique_ptrINS_15__thread_structENS_14default_deleteIS2_EEEEM12SharedBufferFvP4FileEPS6_S8_EEERNS_13tuple_elementIXT_ENS_5tupleIJDpT0_EEEE4typeERSG_, symObjAddr: 0x4D10, symBinAddr: 0x1000060F0, symSize: 0x28 }
  - { offsetInCU: 0xB44D, offset: 0xE127, size: 0x8, addend: 0x0, symName: __ZSt28__throw_bad_array_new_lengthB7v160006v, symObjAddr: 0x18D0, symBinAddr: 0x100002CB0, symSize: 0x34 }
  - { offsetInCU: 0xB611, offset: 0xE2EB, size: 0x8, addend: 0x0, symName: __ZL8ITEM_MIN, symObjAddr: 0x3DF48, symBinAddr: 0x100020018, symSize: 0x0 }
  - { offsetInCU: 0xB893, offset: 0xE56D, size: 0x8, addend: 0x0, symName: __ZL8ITEM_MAX, symObjAddr: 0x3DF90, symBinAddr: 0x100020060, symSize: 0x0 }
  - { offsetInCU: 0xE035, offset: 0x10D0F, size: 0x8, addend: 0x0, symName: __ZNSt3__16vectorI9ItemFieldNS_9allocatorIS1_EEEC1B7v160006ESt16initializer_listIS1_E, symObjAddr: 0x0, symBinAddr: 0x1000013E0, symSize: 0x3C }
  - { offsetInCU: 0xE070, offset: 0x10D4A, size: 0x8, addend: 0x0, symName: __ZNSt3__16vectorI9ItemFieldNS_9allocatorIS1_EEED1B7v160006Ev, symObjAddr: 0x3C, symBinAddr: 0x10000141C, symSize: 0x2C }
  - { offsetInCU: 0xE09F, offset: 0x10D79, size: 0x8, addend: 0x0, symName: __ZNSt3__112basic_stringIcNS_11char_traitsIcEENS_9allocatorIcEEEC1B7v160006IDnEEPKc, symObjAddr: 0x68, symBinAddr: 0x100001448, symSize: 0x34 }
  - { offsetInCU: 0xE0DD, offset: 0x10DB7, size: 0x8, addend: 0x0, symName: __ZN4ItemD1Ev, symObjAddr: 0x9C, symBinAddr: 0x10000147C, symSize: 0x2C }
  - { offsetInCU: 0xE40C, offset: 0x110E6, size: 0x8, addend: 0x0, symName: __ZN8DiskScanC2Ejjjyj, symObjAddr: 0xC8, symBinAddr: 0x1000014A8, symSize: 0x314 }
  - { offsetInCU: 0xE4BA, offset: 0x11194, size: 0x8, addend: 0x0, symName: __ZN8DiskScan13MultiwayMergeEv, symObjAddr: 0x3DC, symBinAddr: 0x1000017BC, symSize: 0x2A4 }
  - { offsetInCU: 0xE59B, offset: 0x11275, size: 0x8, addend: 0x0, symName: __ZN8DiskScanC1Ejjjyj, symObjAddr: 0x680, symBinAddr: 0x100001A60, symSize: 0x54 }
  - { offsetInCU: 0xE60D, offset: 0x112E7, size: 0x8, addend: 0x0, symName: __ZN8DiskScanD2Ev, symObjAddr: 0x6D4, symBinAddr: 0x100001AB4, symSize: 0x344 }
  - { offsetInCU: 0xE6C5, offset: 0x1139F, size: 0x8, addend: 0x0, symName: __ZNSt3__113basic_ostreamIcNS_11char_traitsIcEEElsB7v160006EPFRS3_S4_E, symObjAddr: 0xA24, symBinAddr: 0x100001E04, symSize: 0x2C }
  - { offsetInCU: 0xE6F9, offset: 0x113D3, size: 0x8, addend: 0x0, symName: __ZN8DiskScanD1Ev, symObjAddr: 0xC10, symBinAddr: 0x100001FF0, symSize: 0x2C }
  - { offsetInCU: 0xE725, offset: 0x113FF, size: 0x8, addend: 0x0, symName: __ZN8DiskScan12ReadFromDiskEv, symObjAddr: 0xC3C, symBinAddr: 0x10000201C, symSize: 0x114 }
  - { offsetInCU: 0xE7C1, offset: 0x1149B, size: 0x8, addend: 0x0, symName: __ZN8DiskScan16Bytes2DiskRecordEPcj, symObjAddr: 0xD50, symBinAddr: 0x100002130, symSize: 0xE0 }
  - { offsetInCU: 0xE84D, offset: 0x11527, size: 0x8, addend: 0x0, symName: __ZN8DiskScan9RefillRowEj, symObjAddr: 0xE30, symBinAddr: 0x100002210, symSize: 0xA8 }
  - { offsetInCU: 0xE982, offset: 0x1165C, size: 0x8, addend: 0x0, symName: __ZNSt3__16threadC1IM12SharedBufferFvP4FileEJRPS2_RS4_EvEEOT_DpOT0_, symObjAddr: 0xED8, symBinAddr: 0x1000022B8, symSize: 0x44 }
  - { offsetInCU: 0xE9F3, offset: 0x116CD, size: 0x8, addend: 0x0, symName: __ZN4ItemD2Ev, symObjAddr: 0xF1C, symBinAddr: 0x1000022FC, symSize: 0x64 }
  - { offsetInCU: 0xEA1D, offset: 0x116F7, size: 0x8, addend: 0x0, symName: __ZNSt3__16vectorI9ItemFieldNS_9allocatorIS1_EEEC2B7v160006ESt16initializer_listIS1_E, symObjAddr: 0xF80, symBinAddr: 0x100002360, symSize: 0x124 }
  - { offsetInCU: 0xEA7A, offset: 0x11754, size: 0x8, addend: 0x0, symName: __ZNSt3__117__compressed_pairIP9ItemFieldNS_9allocatorIS1_EEEC1B7v160006IDnNS_18__default_init_tagEEEOT_OT0_, symObjAddr: 0x10A4, symBinAddr: 0x100002484, symSize: 0x3C }
  - { offsetInCU: 0xEAD2, offset: 0x117AC, size: 0x8, addend: 0x0, symName: __ZNSt3__16vectorI9ItemFieldNS_9allocatorIS1_EEE16__destroy_vectorC1ERS4_, symObjAddr: 0x1120, symBinAddr: 0x100002500, symSize: 0x34 }
  - { offsetInCU: 0xEB0B, offset: 0x117E5, size: 0x8, addend: 0x0, symName: __ZNKSt16initializer_listI9ItemFieldE4sizeB7v160006Ev, symObjAddr: 0x1164, symBinAddr: 0x100002544, symSize: 0x18 }
  - { offsetInCU: 0xEB31, offset: 0x1180B, size: 0x8, addend: 0x0, symName: __ZNSt3__16vectorI9ItemFieldNS_9allocatorIS1_EEE11__vallocateB7v160006Em, symObjAddr: 0x117C, symBinAddr: 0x10000255C, symSize: 0xAC }
  - { offsetInCU: 0xEB75, offset: 0x1184F, size: 0x8, addend: 0x0, symName: __ZNSt3__16vectorI9ItemFieldNS_9allocatorIS1_EEE18__construct_at_endIPKS1_Li0EEEvT_S8_m, symObjAddr: 0x1228, symBinAddr: 0x100002608, symSize: 0x8C }
  - { offsetInCU: 0xEBE8, offset: 0x118C2, size: 0x8, addend: 0x0, symName: __ZNKSt16initializer_listI9ItemFieldE5beginB7v160006Ev, symObjAddr: 0x12B4, symBinAddr: 0x100002694, symSize: 0x18 }
  - { offsetInCU: 0xEC0E, offset: 0x118E8, size: 0x8, addend: 0x0, symName: __ZNKSt16initializer_listI9ItemFieldE3endB7v160006Ev, symObjAddr: 0x12CC, symBinAddr: 0x1000026AC, symSize: 0x20 }
  - { offsetInCU: 0xEC34, offset: 0x1190E, size: 0x8, addend: 0x0, symName: __ZNSt3__128__exception_guard_exceptionsINS_6vectorI9ItemFieldNS_9allocatorIS2_EEE16__destroy_vectorEE10__completeB7v160006Ev, symObjAddr: 0x12EC, symBinAddr: 0x1000026CC, symSize: 0x1C }
  - { offsetInCU: 0xEC5A, offset: 0x11934, size: 0x8, addend: 0x0, symName: __ZNSt3__128__exception_guard_exceptionsINS_6vectorI9ItemFieldNS_9allocatorIS2_EEE16__destroy_vectorEED1B7v160006Ev, symObjAddr: 0x1308, symBinAddr: 0x1000026E8, symSize: 0x2C }
  - { offsetInCU: 0xEC84, offset: 0x1195E, size: 0x8, addend: 0x0, symName: __ZNSt3__117__compressed_pairIP9ItemFieldNS_9allocatorIS1_EEEC2B7v160006IDnNS_18__default_init_tagEEEOT_OT0_, symObjAddr: 0x1334, symBinAddr: 0x100002714, symSize: 0x40 }
  - { offsetInCU: 0xECDC, offset: 0x119B6, size: 0x8, addend: 0x0, symName: __ZNSt3__122__compressed_pair_elemIP9ItemFieldLi0ELb0EEC2B7v160006IDnvEEOT_, symObjAddr: 0x1374, symBinAddr: 0x100002754, symSize: 0x1C }
  - { offsetInCU: 0xED1E, offset: 0x119F8, size: 0x8, addend: 0x0, symName: __ZNSt3__122__compressed_pair_elemINS_9allocatorI9ItemFieldEELi1ELb1EEC2B7v160006ENS_18__default_init_tagE, symObjAddr: 0x1390, symBinAddr: 0x100002770, symSize: 0x2C }
  - { offsetInCU: 0xED53, offset: 0x11A2D, size: 0x8, addend: 0x0, symName: __ZNSt3__19allocatorI9ItemFieldEC2B7v160006Ev, symObjAddr: 0x13BC, symBinAddr: 0x10000279C, symSize: 0x2C }
  - { offsetInCU: 0xED7D, offset: 0x11A57, size: 0x8, addend: 0x0, symName: __ZNSt3__116__non_trivial_ifILb1ENS_9allocatorI9ItemFieldEEEC2B7v160006Ev, symObjAddr: 0x13E8, symBinAddr: 0x1000027C8, symSize: 0x14 }
  - { offsetInCU: 0xEDA7, offset: 0x11A81, size: 0x8, addend: 0x0, symName: __ZNSt3__128__exception_guard_exceptionsINS_6vectorI9ItemFieldNS_9allocatorIS2_EEE16__destroy_vectorEEC1B7v160006ES6_, symObjAddr: 0x13FC, symBinAddr: 0x1000027DC, symSize: 0x34 }
  - { offsetInCU: 0xEDDF, offset: 0x11AB9, size: 0x8, addend: 0x0, symName: __ZNSt3__128__exception_guard_exceptionsINS_6vectorI9ItemFieldNS_9allocatorIS2_EEE16__destroy_vectorEEC2B7v160006ES6_, symObjAddr: 0x1430, symBinAddr: 0x100002810, symSize: 0x24 }
  - { offsetInCU: 0xEE17, offset: 0x11AF1, size: 0x8, addend: 0x0, symName: __ZNSt3__16vectorI9ItemFieldNS_9allocatorIS1_EEE16__destroy_vectorC2ERS4_, symObjAddr: 0x1454, symBinAddr: 0x100002834, symSize: 0x20 }
  - { offsetInCU: 0xEE50, offset: 0x11B2A, size: 0x8, addend: 0x0, symName: __ZNKSt3__16vectorI9ItemFieldNS_9allocatorIS1_EEE8max_sizeEv, symObjAddr: 0x1474, symBinAddr: 0x100002854, symSize: 0x60 }
  - { offsetInCU: 0xEE78, offset: 0x11B52, size: 0x8, addend: 0x0, symName: __ZNKSt3__16vectorI9ItemFieldNS_9allocatorIS1_EEE20__throw_length_errorB7v160006Ev, symObjAddr: 0x14D4, symBinAddr: 0x1000028B4, symSize: 0x1C }
  - { offsetInCU: 0xEE9E, offset: 0x11B78, size: 0x8, addend: 0x0, symName: __ZNSt3__16vectorI9ItemFieldNS_9allocatorIS1_EEE7__allocB7v160006Ev, symObjAddr: 0x1530, symBinAddr: 0x100002910, symSize: 0x28 }
  - { offsetInCU: 0xEEC4, offset: 0x11B9E, size: 0x8, addend: 0x0, symName: __ZNSt3__16vectorI9ItemFieldNS_9allocatorIS1_EEE9__end_capB7v160006Ev, symObjAddr: 0x1558, symBinAddr: 0x100002938, symSize: 0x28 }
  - { offsetInCU: 0xEEEA, offset: 0x11BC4, size: 0x8, addend: 0x0, symName: __ZNKSt3__16vectorI9ItemFieldNS_9allocatorIS1_EEE14__annotate_newB7v160006Em, symObjAddr: 0x1580, symBinAddr: 0x100002960, symSize: 0xAC }
  - { offsetInCU: 0xEF2A, offset: 0x11C04, size: 0x8, addend: 0x0, symName: __ZNSt3__116allocator_traitsINS_9allocatorI9ItemFieldEEE8max_sizeB7v160006IS3_vEEmRKS3_, symObjAddr: 0x1658, symBinAddr: 0x100002A38, symSize: 0x24 }
  - { offsetInCU: 0xEF58, offset: 0x11C32, size: 0x8, addend: 0x0, symName: __ZNKSt3__16vectorI9ItemFieldNS_9allocatorIS1_EEE7__allocB7v160006Ev, symObjAddr: 0x167C, symBinAddr: 0x100002A5C, symSize: 0x28 }
  - { offsetInCU: 0xEF7E, offset: 0x11C58, size: 0x8, addend: 0x0, symName: __ZNSt3__114numeric_limitsIlE3maxB7v160006Ev, symObjAddr: 0x16A4, symBinAddr: 0x100002A84, symSize: 0x14 }
  - { offsetInCU: 0xEFA7, offset: 0x11C81, size: 0x8, addend: 0x0, symName: __ZNKSt3__16__lessImmEclB7v160006ERKmS3_, symObjAddr: 0x170C, symBinAddr: 0x100002AEC, symSize: 0x34 }
  - { offsetInCU: 0xEFE9, offset: 0x11CC3, size: 0x8, addend: 0x0, symName: __ZNKSt3__19allocatorI9ItemFieldE8max_sizeB7v160006Ev, symObjAddr: 0x1740, symBinAddr: 0x100002B20, symSize: 0x14 }
  - { offsetInCU: 0xF00F, offset: 0x11CE9, size: 0x8, addend: 0x0, symName: __ZNKSt3__117__compressed_pairIP9ItemFieldNS_9allocatorIS1_EEE6secondB7v160006Ev, symObjAddr: 0x1754, symBinAddr: 0x100002B34, symSize: 0x24 }
  - { offsetInCU: 0xF035, offset: 0x11D0F, size: 0x8, addend: 0x0, symName: __ZNKSt3__122__compressed_pair_elemINS_9allocatorI9ItemFieldEELi1ELb1EE5__getB7v160006Ev, symObjAddr: 0x1778, symBinAddr: 0x100002B58, symSize: 0x14 }
  - { offsetInCU: 0xF05B, offset: 0x11D35, size: 0x8, addend: 0x0, symName: __ZNSt3__123__libcpp_numeric_limitsIlLb1EE3maxB7v160006Ev, symObjAddr: 0x178C, symBinAddr: 0x100002B6C, symSize: 0x8 }
  - { offsetInCU: 0xF06F, offset: 0x11D49, size: 0x8, addend: 0x0, symName: __ZNSt12length_errorC1B7v160006EPKc, symObjAddr: 0x17F8, symBinAddr: 0x100002BD8, symSize: 0x34 }
  - { offsetInCU: 0xF0A7, offset: 0x11D81, size: 0x8, addend: 0x0, symName: __ZNSt12length_errorC2B7v160006EPKc, symObjAddr: 0x182C, symBinAddr: 0x100002C0C, symSize: 0x4C }
  - { offsetInCU: 0xF0DF, offset: 0x11DB9, size: 0x8, addend: 0x0, symName: __ZNSt3__19allocatorI9ItemFieldE8allocateB7v160006Em, symObjAddr: 0x1878, symBinAddr: 0x100002C58, symSize: 0x58 }
  - { offsetInCU: 0xF113, offset: 0x11DED, size: 0x8, addend: 0x0, symName: __ZNSt3__117__compressed_pairIP9ItemFieldNS_9allocatorIS1_EEE6secondB7v160006Ev, symObjAddr: 0x1950, symBinAddr: 0x100002D30, symSize: 0x24 }
  - { offsetInCU: 0xF139, offset: 0x11E13, size: 0x8, addend: 0x0, symName: __ZNSt3__122__compressed_pair_elemINS_9allocatorI9ItemFieldEELi1ELb1EE5__getB7v160006Ev, symObjAddr: 0x1974, symBinAddr: 0x100002D54, symSize: 0x14 }
  - { offsetInCU: 0xF15F, offset: 0x11E39, size: 0x8, addend: 0x0, symName: __ZNSt3__117__compressed_pairIP9ItemFieldNS_9allocatorIS1_EEE5firstB7v160006Ev, symObjAddr: 0x1988, symBinAddr: 0x100002D68, symSize: 0x24 }
  - { offsetInCU: 0xF185, offset: 0x11E5F, size: 0x8, addend: 0x0, symName: __ZNSt3__122__compressed_pair_elemIP9ItemFieldLi0ELb0EE5__getB7v160006Ev, symObjAddr: 0x19AC, symBinAddr: 0x100002D8C, symSize: 0x14 }
  - { offsetInCU: 0xF1AB, offset: 0x11E85, size: 0x8, addend: 0x0, symName: __ZNKSt3__16vectorI9ItemFieldNS_9allocatorIS1_EEE31__annotate_contiguous_containerB7v160006EPKvS6_S6_S6_, symObjAddr: 0x19C0, symBinAddr: 0x100002DA0, symSize: 0x20 }
  - { offsetInCU: 0xF201, offset: 0x11EDB, size: 0x8, addend: 0x0, symName: __ZNKSt3__16vectorI9ItemFieldNS_9allocatorIS1_EEE4dataB7v160006Ev, symObjAddr: 0x19E0, symBinAddr: 0x100002DC0, symSize: 0x28 }
  - { offsetInCU: 0xF227, offset: 0x11F01, size: 0x8, addend: 0x0, symName: __ZNKSt3__16vectorI9ItemFieldNS_9allocatorIS1_EEE8capacityB7v160006Ev, symObjAddr: 0x1A08, symBinAddr: 0x100002DE8, symSize: 0x40 }
  - { offsetInCU: 0xF24D, offset: 0x11F27, size: 0x8, addend: 0x0, symName: __ZNKSt3__16vectorI9ItemFieldNS_9allocatorIS1_EEE9__end_capB7v160006Ev, symObjAddr: 0x1A5C, symBinAddr: 0x100002E3C, symSize: 0x28 }
  - { offsetInCU: 0xF273, offset: 0x11F4D, size: 0x8, addend: 0x0, symName: __ZNKSt3__117__compressed_pairIP9ItemFieldNS_9allocatorIS1_EEE5firstB7v160006Ev, symObjAddr: 0x1A84, symBinAddr: 0x100002E64, symSize: 0x24 }
  - { offsetInCU: 0xF299, offset: 0x11F73, size: 0x8, addend: 0x0, symName: __ZNKSt3__122__compressed_pair_elemIP9ItemFieldLi0ELb0EE5__getB7v160006Ev, symObjAddr: 0x1AA8, symBinAddr: 0x100002E88, symSize: 0x14 }
  - { offsetInCU: 0xF2DA, offset: 0x11FB4, size: 0x8, addend: 0x0, symName: __ZNSt3__16vectorI9ItemFieldNS_9allocatorIS1_EEE21_ConstructTransactionC1B7v160006ERS4_m, symObjAddr: 0x1ABC, symBinAddr: 0x100002E9C, symSize: 0x3C }
  - { offsetInCU: 0xF322, offset: 0x11FFC, size: 0x8, addend: 0x0, symName: __ZNSt3__16vectorI9ItemFieldNS_9allocatorIS1_EEE21_ConstructTransactionD1B7v160006Ev, symObjAddr: 0x1B30, symBinAddr: 0x100002F10, symSize: 0x2C }
  - { offsetInCU: 0xF34C, offset: 0x12026, size: 0x8, addend: 0x0, symName: __ZNSt3__16vectorI9ItemFieldNS_9allocatorIS1_EEE21_ConstructTransactionC2B7v160006ERS4_m, symObjAddr: 0x1B5C, symBinAddr: 0x100002F3C, symSize: 0x44 }
  - { offsetInCU: 0xF3BA, offset: 0x12094, size: 0x8, addend: 0x0, symName: __ZNKSt3__114__copy_trivialclB7v160006IK9ItemFieldS2_Li0EEENS_4pairIPT_PT0_EES6_S6_S8_, symObjAddr: 0x1D7C, symBinAddr: 0x10000315C, symSize: 0x48 }
  - { offsetInCU: 0xF444, offset: 0x1211E, size: 0x8, addend: 0x0, symName: __ZNSt3__14pairIPK9ItemFieldS3_EC1B7v160006IS3_S3_LPv0EEEOT_OT0_, symObjAddr: 0x1EE4, symBinAddr: 0x1000032C4, symSize: 0x3C }
  - { offsetInCU: 0xF4A2, offset: 0x1217C, size: 0x8, addend: 0x0, symName: __ZNSt3__14pairIPK9ItemFieldS3_EC2B7v160006IS3_S3_LPv0EEEOT_OT0_, symObjAddr: 0x1F20, symBinAddr: 0x100003300, symSize: 0x34 }
  - { offsetInCU: 0xF500, offset: 0x121DA, size: 0x8, addend: 0x0, symName: __ZNSt3__118__unwrap_iter_implIPK9ItemFieldLb1EE8__unwrapB7v160006ES3_, symObjAddr: 0x1F54, symBinAddr: 0x100003334, symSize: 0x24 }
  - { offsetInCU: 0xF52F, offset: 0x12209, size: 0x8, addend: 0x0, symName: __ZNSt3__14pairIPK9ItemFieldPS1_EC1B7v160006IRS3_S4_LPv0EEEOT_OT0_, symObjAddr: 0x2048, symBinAddr: 0x100003428, symSize: 0x3C }
  - { offsetInCU: 0xF58D, offset: 0x12267, size: 0x8, addend: 0x0, symName: __ZNSt3__14pairIPK9ItemFieldPS1_EC2B7v160006IRS3_S4_LPv0EEEOT_OT0_, symObjAddr: 0x2084, symBinAddr: 0x100003464, symSize: 0x34 }
  - { offsetInCU: 0xF5EB, offset: 0x122C5, size: 0x8, addend: 0x0, symName: __ZNSt3__118__unwrap_iter_implIP9ItemFieldLb1EE8__unwrapB7v160006ES2_, symObjAddr: 0x20B8, symBinAddr: 0x100003498, symSize: 0x24 }
  - { offsetInCU: 0xF60E, offset: 0x122E8, size: 0x8, addend: 0x0, symName: __ZNSt3__14pairIPK9ItemFieldPS1_EC1B7v160006IS3_S4_LPv0EEEOT_OT0_, symObjAddr: 0x20DC, symBinAddr: 0x1000034BC, symSize: 0x3C }
  - { offsetInCU: 0xF66C, offset: 0x12346, size: 0x8, addend: 0x0, symName: __ZNSt3__14pairIPK9ItemFieldPS1_EC2B7v160006IS3_S4_LPv0EEEOT_OT0_, symObjAddr: 0x2118, symBinAddr: 0x1000034F8, symSize: 0x34 }
  - { offsetInCU: 0xF6CA, offset: 0x123A4, size: 0x8, addend: 0x0, symName: __ZNSt3__118__unwrap_iter_implIPK9ItemFieldLb1EE8__rewrapB7v160006ES3_S3_, symObjAddr: 0x2188, symBinAddr: 0x100003568, symSize: 0x50 }
  - { offsetInCU: 0xF6FB, offset: 0x123D5, size: 0x8, addend: 0x0, symName: __ZNSt3__118__unwrap_iter_implIP9ItemFieldLb1EE8__rewrapB7v160006ES2_S2_, symObjAddr: 0x21D8, symBinAddr: 0x1000035B8, symSize: 0x50 }
  - { offsetInCU: 0xF72C, offset: 0x12406, size: 0x8, addend: 0x0, symName: __ZNSt3__16vectorI9ItemFieldNS_9allocatorIS1_EEE21_ConstructTransactionD2B7v160006Ev, symObjAddr: 0x2228, symBinAddr: 0x100003608, symSize: 0x20 }
  - { offsetInCU: 0xF756, offset: 0x12430, size: 0x8, addend: 0x0, symName: __ZNSt3__128__exception_guard_exceptionsINS_6vectorI9ItemFieldNS_9allocatorIS2_EEE16__destroy_vectorEED2B7v160006Ev, symObjAddr: 0x2248, symBinAddr: 0x100003628, symSize: 0x50 }
  - { offsetInCU: 0xF780, offset: 0x1245A, size: 0x8, addend: 0x0, symName: __ZNSt3__16vectorI9ItemFieldNS_9allocatorIS1_EEE16__destroy_vectorclB7v160006Ev, symObjAddr: 0x2298, symBinAddr: 0x100003678, symSize: 0x9C }
  - { offsetInCU: 0xF7A6, offset: 0x12480, size: 0x8, addend: 0x0, symName: __ZNKSt3__16vectorI9ItemFieldNS_9allocatorIS1_EEE17__annotate_deleteB7v160006Ev, symObjAddr: 0x2334, symBinAddr: 0x100003714, symSize: 0xB8 }
  - { offsetInCU: 0xF7CC, offset: 0x124A6, size: 0x8, addend: 0x0, symName: __ZNSt3__16vectorI9ItemFieldNS_9allocatorIS1_EEE7__clearB7v160006Ev, symObjAddr: 0x23FC, symBinAddr: 0x1000037DC, symSize: 0x28 }
  - { offsetInCU: 0xF7F2, offset: 0x124CC, size: 0x8, addend: 0x0, symName: __ZNSt3__116allocator_traitsINS_9allocatorI9ItemFieldEEE10deallocateB7v160006ERS3_PS2_m, symObjAddr: 0x2424, symBinAddr: 0x100003804, symSize: 0x34 }
  - { offsetInCU: 0xF834, offset: 0x1250E, size: 0x8, addend: 0x0, symName: __ZNKSt3__16vectorI9ItemFieldNS_9allocatorIS1_EEE4sizeB7v160006Ev, symObjAddr: 0x2458, symBinAddr: 0x100003838, symSize: 0x28 }
  - { offsetInCU: 0xF85A, offset: 0x12534, size: 0x8, addend: 0x0, symName: __ZNSt3__16vectorI9ItemFieldNS_9allocatorIS1_EEE22__base_destruct_at_endB7v160006EPS1_, symObjAddr: 0x2480, symBinAddr: 0x100003860, symSize: 0x8C }
  - { offsetInCU: 0xF89E, offset: 0x12578, size: 0x8, addend: 0x0, symName: __ZNSt3__116allocator_traitsINS_9allocatorI9ItemFieldEEE7destroyB7v160006IS2_vEEvRS3_PT_, symObjAddr: 0x250C, symBinAddr: 0x1000038EC, symSize: 0x2C }
  - { offsetInCU: 0xF8DB, offset: 0x125B5, size: 0x8, addend: 0x0, symName: __ZNSt3__19allocatorI9ItemFieldE7destroyB7v160006EPS1_, symObjAddr: 0x2538, symBinAddr: 0x100003918, symSize: 0x14 }
  - { offsetInCU: 0xF90F, offset: 0x125E9, size: 0x8, addend: 0x0, symName: __ZNSt3__19allocatorI9ItemFieldE10deallocateB7v160006EPS1_m, symObjAddr: 0x254C, symBinAddr: 0x10000392C, symSize: 0x40 }
  - { offsetInCU: 0xF951, offset: 0x1262B, size: 0x8, addend: 0x0, symName: __ZNSt3__16vectorI9ItemFieldNS_9allocatorIS1_EEED2B7v160006Ev, symObjAddr: 0x2608, symBinAddr: 0x1000039E8, symSize: 0x44 }
  - { offsetInCU: 0xF97B, offset: 0x12655, size: 0x8, addend: 0x0, symName: __ZNSt3__112basic_stringIcNS_11char_traitsIcEENS_9allocatorIcEEEC2B7v160006IDnEEPKc, symObjAddr: 0x264C, symBinAddr: 0x100003A2C, symSize: 0x60 }
  - { offsetInCU: 0xF9B9, offset: 0x12693, size: 0x8, addend: 0x0, symName: __ZNSt3__117__compressed_pairINS_12basic_stringIcNS_11char_traitsIcEENS_9allocatorIcEEE5__repES5_EC1B7v160006INS_18__default_init_tagESA_EEOT_OT0_, symObjAddr: 0x26AC, symBinAddr: 0x100003A8C, symSize: 0x3C }
  - { offsetInCU: 0xFA11, offset: 0x126EB, size: 0x8, addend: 0x0, symName: __ZNSt3__111char_traitsIcE6lengthEPKc, symObjAddr: 0x26E8, symBinAddr: 0x100003AC8, symSize: 0x34 }
  - { offsetInCU: 0xFA34, offset: 0x1270E, size: 0x8, addend: 0x0, symName: __ZNSt3__117__compressed_pairINS_12basic_stringIcNS_11char_traitsIcEENS_9allocatorIcEEE5__repES5_EC2B7v160006INS_18__default_init_tagESA_EEOT_OT0_, symObjAddr: 0x272C, symBinAddr: 0x100003B0C, symSize: 0x3C }
  - { offsetInCU: 0xFA8C, offset: 0x12766, size: 0x8, addend: 0x0, symName: __ZNSt3__122__compressed_pair_elemINS_12basic_stringIcNS_11char_traitsIcEENS_9allocatorIcEEE5__repELi0ELb0EEC2B7v160006ENS_18__default_init_tagE, symObjAddr: 0x2768, symBinAddr: 0x100003B48, symSize: 0x14 }
  - { offsetInCU: 0xFAC1, offset: 0x1279B, size: 0x8, addend: 0x0, symName: __ZNSt3__122__compressed_pair_elemINS_9allocatorIcEELi1ELb1EEC2B7v160006ENS_18__default_init_tagE, symObjAddr: 0x277C, symBinAddr: 0x100003B5C, symSize: 0x2C }
  - { offsetInCU: 0xFAF6, offset: 0x127D0, size: 0x8, addend: 0x0, symName: __ZNSt3__19allocatorIcEC2B7v160006Ev, symObjAddr: 0x27A8, symBinAddr: 0x100003B88, symSize: 0x2C }
  - { offsetInCU: 0xFB20, offset: 0x127FA, size: 0x8, addend: 0x0, symName: __ZNSt3__116__non_trivial_ifILb1ENS_9allocatorIcEEEC2B7v160006Ev, symObjAddr: 0x27D4, symBinAddr: 0x100003BB4, symSize: 0x14 }
  - { offsetInCU: 0xFB4A, offset: 0x12824, size: 0x8, addend: 0x0, symName: __ZNKSt3__19basic_iosIcNS_11char_traitsIcEEE5widenB7v160006Ec, symObjAddr: 0x280C, symBinAddr: 0x100003BEC, symSize: 0x84 }
  - { offsetInCU: 0xFBB8, offset: 0x12892, size: 0x8, addend: 0x0, symName: __ZNKSt3__15ctypeIcE5widenB7v160006Ec, symObjAddr: 0x28BC, symBinAddr: 0x100003C9C, symSize: 0x38 }
  - { offsetInCU: 0xFBED, offset: 0x128C7, size: 0x8, addend: 0x0, symName: __ZNKSt3__112basic_stringIcNS_11char_traitsIcEENS_9allocatorIcEEE4sizeB7v160006Ev, symObjAddr: 0x28F4, symBinAddr: 0x100003CD4, symSize: 0x54 }
  - { offsetInCU: 0xFC1E, offset: 0x128F8, size: 0x8, addend: 0x0, symName: __ZNSt3__116allocator_traitsINS_9allocatorIcEEE37select_on_container_copy_constructionB7v160006IS2_vvEES2_RKS2_, symObjAddr: 0x2948, symBinAddr: 0x100003D28, symSize: 0x10 }
  - { offsetInCU: 0xFC4D, offset: 0x12927, size: 0x8, addend: 0x0, symName: __ZNKSt3__112basic_stringIcNS_11char_traitsIcEENS_9allocatorIcEEE13get_allocatorB7v160006Ev, symObjAddr: 0x2958, symBinAddr: 0x100003D38, symSize: 0x24 }
  - { offsetInCU: 0xFC73, offset: 0x1294D, size: 0x8, addend: 0x0, symName: __ZNSt3__112basic_stringIcNS_11char_traitsIcEENS_9allocatorIcEEEC1B7v160006ENS_24__uninitialized_size_tagEmRKS4_, symObjAddr: 0x297C, symBinAddr: 0x100003D5C, symSize: 0x3C }
  - { offsetInCU: 0xFCC7, offset: 0x129A1, size: 0x8, addend: 0x0, symName: __ZNSt3__112basic_stringIcNS_11char_traitsIcEENS_9allocatorIcEEE13__get_pointerB7v160006Ev, symObjAddr: 0x29CC, symBinAddr: 0x100003DAC, symSize: 0x54 }
  - { offsetInCU: 0xFCED, offset: 0x129C7, size: 0x8, addend: 0x0, symName: __ZNSt3__111char_traitsIcE4copyEPcPKcm, symObjAddr: 0x2A20, symBinAddr: 0x100003E00, symSize: 0x5C }
  - { offsetInCU: 0xFD2C, offset: 0x12A06, size: 0x8, addend: 0x0, symName: __ZNKSt3__112basic_stringIcNS_11char_traitsIcEENS_9allocatorIcEEE4dataB7v160006Ev, symObjAddr: 0x2A7C, symBinAddr: 0x100003E5C, symSize: 0x28 }
  - { offsetInCU: 0xFD52, offset: 0x12A2C, size: 0x8, addend: 0x0, symName: __ZNSt3__111char_traitsIcE6assignEPcmc, symObjAddr: 0x2AA4, symBinAddr: 0x100003E84, symSize: 0x44 }
  - { offsetInCU: 0xFD91, offset: 0x12A6B, size: 0x8, addend: 0x0, symName: __ZNKSt3__112basic_stringIcNS_11char_traitsIcEENS_9allocatorIcEEE9__is_longB7v160006Ev, symObjAddr: 0x2AE8, symBinAddr: 0x100003EC8, symSize: 0x38 }
  - { offsetInCU: 0xFDB7, offset: 0x12A91, size: 0x8, addend: 0x0, symName: __ZNKSt3__112basic_stringIcNS_11char_traitsIcEENS_9allocatorIcEEE15__get_long_sizeB7v160006Ev, symObjAddr: 0x2B20, symBinAddr: 0x100003F00, symSize: 0x28 }
  - { offsetInCU: 0xFDDD, offset: 0x12AB7, size: 0x8, addend: 0x0, symName: __ZNKSt3__112basic_stringIcNS_11char_traitsIcEENS_9allocatorIcEEE16__get_short_sizeB7v160006Ev, symObjAddr: 0x2B48, symBinAddr: 0x100003F28, symSize: 0x34 }
  - { offsetInCU: 0xFE03, offset: 0x12ADD, size: 0x8, addend: 0x0, symName: __ZNKSt3__117__compressed_pairINS_12basic_stringIcNS_11char_traitsIcEENS_9allocatorIcEEE5__repES5_E5firstB7v160006Ev, symObjAddr: 0x2B7C, symBinAddr: 0x100003F5C, symSize: 0x24 }
  - { offsetInCU: 0xFE29, offset: 0x12B03, size: 0x8, addend: 0x0, symName: __ZNKSt3__122__compressed_pair_elemINS_12basic_stringIcNS_11char_traitsIcEENS_9allocatorIcEEE5__repELi0ELb0EE5__getB7v160006Ev, symObjAddr: 0x2BA0, symBinAddr: 0x100003F80, symSize: 0x14 }
  - { offsetInCU: 0xFE4F, offset: 0x12B29, size: 0x8, addend: 0x0, symName: __ZNKSt3__112basic_stringIcNS_11char_traitsIcEENS_9allocatorIcEEE7__allocB7v160006Ev, symObjAddr: 0x2BB4, symBinAddr: 0x100003F94, symSize: 0x24 }
  - { offsetInCU: 0xFE75, offset: 0x12B4F, size: 0x8, addend: 0x0, symName: __ZNKSt3__117__compressed_pairINS_12basic_stringIcNS_11char_traitsIcEENS_9allocatorIcEEE5__repES5_E6secondB7v160006Ev, symObjAddr: 0x2BD8, symBinAddr: 0x100003FB8, symSize: 0x24 }
  - { offsetInCU: 0xFE9B, offset: 0x12B75, size: 0x8, addend: 0x0, symName: __ZNKSt3__122__compressed_pair_elemINS_9allocatorIcEELi1ELb1EE5__getB7v160006Ev, symObjAddr: 0x2BFC, symBinAddr: 0x100003FDC, symSize: 0x14 }
  - { offsetInCU: 0xFEC1, offset: 0x12B9B, size: 0x8, addend: 0x0, symName: __ZNSt3__112basic_stringIcNS_11char_traitsIcEENS_9allocatorIcEEEC2B7v160006ENS_24__uninitialized_size_tagEmRKS4_, symObjAddr: 0x2C10, symBinAddr: 0x100003FF0, symSize: 0x118 }
  - { offsetInCU: 0xFF42, offset: 0x12C1C, size: 0x8, addend: 0x0, symName: __ZNSt3__117__compressed_pairINS_12basic_stringIcNS_11char_traitsIcEENS_9allocatorIcEEE5__repES5_EC1B7v160006INS_18__default_init_tagERKS5_EEOT_OT0_, symObjAddr: 0x2D28, symBinAddr: 0x100004108, symSize: 0x3C }
  - { offsetInCU: 0xFF9A, offset: 0x12C74, size: 0x8, addend: 0x0, symName: __ZNKSt3__112basic_stringIcNS_11char_traitsIcEENS_9allocatorIcEEE8max_sizeB7v160006Ev, symObjAddr: 0x2D64, symBinAddr: 0x100004144, symSize: 0xAC }
  - { offsetInCU: 0xFFED, offset: 0x12CC7, size: 0x8, addend: 0x0, symName: __ZNKSt3__112basic_stringIcNS_11char_traitsIcEENS_9allocatorIcEEE20__throw_length_errorB7v160006Ev, symObjAddr: 0x2E10, symBinAddr: 0x1000041F0, symSize: 0x1C }
  - { offsetInCU: 0x10013, offset: 0x12CED, size: 0x8, addend: 0x0, symName: __ZNSt3__112basic_stringIcNS_11char_traitsIcEENS_9allocatorIcEEE13__fits_in_ssoB7v160006Em, symObjAddr: 0x2E2C, symBinAddr: 0x10000420C, symSize: 0x20 }
  - { offsetInCU: 0x10037, offset: 0x12D11, size: 0x8, addend: 0x0, symName: __ZNSt3__117__compressed_pairINS_12basic_stringIcNS_11char_traitsIcEENS_9allocatorIcEEE5__repES5_E5firstB7v160006Ev, symObjAddr: 0x2E4C, symBinAddr: 0x10000422C, symSize: 0x24 }
  - { offsetInCU: 0x1005D, offset: 0x12D37, size: 0x8, addend: 0x0, symName: __ZNSt3__112basic_stringIcNS_11char_traitsIcEENS_9allocatorIcEEE16__set_short_sizeB7v160006Em, symObjAddr: 0x2E70, symBinAddr: 0x100004250, symSize: 0x78 }
  - { offsetInCU: 0x10092, offset: 0x12D6C, size: 0x8, addend: 0x0, symName: __ZNSt3__112basic_stringIcNS_11char_traitsIcEENS_9allocatorIcEEE11__recommendB7v160006Em, symObjAddr: 0x2EE8, symBinAddr: 0x1000042C8, symSize: 0x84 }
  - { offsetInCU: 0x100C5, offset: 0x12D9F, size: 0x8, addend: 0x0, symName: __ZNSt3__116allocator_traitsINS_9allocatorIcEEE8allocateB7v160006ERS2_m, symObjAddr: 0x2F6C, symBinAddr: 0x10000434C, symSize: 0x2C }
  - { offsetInCU: 0x100F8, offset: 0x12DD2, size: 0x8, addend: 0x0, symName: __ZNSt3__112basic_stringIcNS_11char_traitsIcEENS_9allocatorIcEEE7__allocB7v160006Ev, symObjAddr: 0x2F98, symBinAddr: 0x100004378, symSize: 0x24 }
  - { offsetInCU: 0x1011E, offset: 0x12DF8, size: 0x8, addend: 0x0, symName: __ZNSt3__112basic_stringIcNS_11char_traitsIcEENS_9allocatorIcEEE16__begin_lifetimeB7v160006EPcm, symObjAddr: 0x2FBC, symBinAddr: 0x10000439C, symSize: 0x14 }
  - { offsetInCU: 0x10151, offset: 0x12E2B, size: 0x8, addend: 0x0, symName: __ZNSt3__112basic_stringIcNS_11char_traitsIcEENS_9allocatorIcEEE14__set_long_capB7v160006Em, symObjAddr: 0x2FD0, symBinAddr: 0x1000043B0, symSize: 0x70 }
  - { offsetInCU: 0x10186, offset: 0x12E60, size: 0x8, addend: 0x0, symName: __ZNSt3__112basic_stringIcNS_11char_traitsIcEENS_9allocatorIcEEE18__set_long_pointerB7v160006EPc, symObjAddr: 0x3040, symBinAddr: 0x100004420, symSize: 0x38 }
  - { offsetInCU: 0x101BB, offset: 0x12E95, size: 0x8, addend: 0x0, symName: __ZNSt3__112basic_stringIcNS_11char_traitsIcEENS_9allocatorIcEEE15__set_long_sizeB7v160006Em, symObjAddr: 0x3078, symBinAddr: 0x100004458, symSize: 0x38 }
  - { offsetInCU: 0x101F0, offset: 0x12ECA, size: 0x8, addend: 0x0, symName: __ZNSt3__117__compressed_pairINS_12basic_stringIcNS_11char_traitsIcEENS_9allocatorIcEEE5__repES5_EC2B7v160006INS_18__default_init_tagERKS5_EEOT_OT0_, symObjAddr: 0x30B0, symBinAddr: 0x100004490, symSize: 0x40 }
  - { offsetInCU: 0x10248, offset: 0x12F22, size: 0x8, addend: 0x0, symName: __ZNSt3__122__compressed_pair_elemINS_9allocatorIcEELi1ELb1EEC2B7v160006IRKS2_vEEOT_, symObjAddr: 0x30F0, symBinAddr: 0x1000044D0, symSize: 0x18 }
  - { offsetInCU: 0x1028A, offset: 0x12F64, size: 0x8, addend: 0x0, symName: __ZNSt3__116allocator_traitsINS_9allocatorIcEEE8max_sizeB7v160006IS2_vEEmRKS2_, symObjAddr: 0x3108, symBinAddr: 0x1000044E8, symSize: 0x24 }
  - { offsetInCU: 0x102B8, offset: 0x12F92, size: 0x8, addend: 0x0, symName: __ZNSt3__114numeric_limitsImE3maxB7v160006Ev, symObjAddr: 0x312C, symBinAddr: 0x10000450C, symSize: 0x14 }
  - { offsetInCU: 0x102CC, offset: 0x12FA6, size: 0x8, addend: 0x0, symName: __ZNKSt3__19allocatorIcE8max_sizeB7v160006Ev, symObjAddr: 0x3140, symBinAddr: 0x100004520, symSize: 0x14 }
  - { offsetInCU: 0x102F2, offset: 0x12FCC, size: 0x8, addend: 0x0, symName: __ZNSt3__123__libcpp_numeric_limitsImLb1EE3maxB7v160006Ev, symObjAddr: 0x3154, symBinAddr: 0x100004534, symSize: 0x8 }
  - { offsetInCU: 0x10306, offset: 0x12FE0, size: 0x8, addend: 0x0, symName: __ZNSt3__122__compressed_pair_elemINS_12basic_stringIcNS_11char_traitsIcEENS_9allocatorIcEEE5__repELi0ELb0EE5__getB7v160006Ev, symObjAddr: 0x315C, symBinAddr: 0x10000453C, symSize: 0x14 }
  - { offsetInCU: 0x1032C, offset: 0x13006, size: 0x8, addend: 0x0, symName: __ZNSt3__112basic_stringIcNS_11char_traitsIcEENS_9allocatorIcEEE10__align_itB7v160006ILm16EEEmm, symObjAddr: 0x3170, symBinAddr: 0x100004550, symSize: 0x1C }
  - { offsetInCU: 0x1035A, offset: 0x13034, size: 0x8, addend: 0x0, symName: __ZNSt3__19allocatorIcE8allocateB7v160006Em, symObjAddr: 0x318C, symBinAddr: 0x10000456C, symSize: 0x58 }
  - { offsetInCU: 0x1038E, offset: 0x13068, size: 0x8, addend: 0x0, symName: __ZNSt3__117__compressed_pairINS_12basic_stringIcNS_11char_traitsIcEENS_9allocatorIcEEE5__repES5_E6secondB7v160006Ev, symObjAddr: 0x31E4, symBinAddr: 0x1000045C4, symSize: 0x24 }
  - { offsetInCU: 0x103B4, offset: 0x1308E, size: 0x8, addend: 0x0, symName: __ZNSt3__122__compressed_pair_elemINS_9allocatorIcEELi1ELb1EE5__getB7v160006Ev, symObjAddr: 0x3208, symBinAddr: 0x1000045E8, symSize: 0x14 }
  - { offsetInCU: 0x103DA, offset: 0x130B4, size: 0x8, addend: 0x0, symName: __ZNSt3__112basic_stringIcNS_11char_traitsIcEENS_9allocatorIcEEE18__get_long_pointerB7v160006Ev, symObjAddr: 0x321C, symBinAddr: 0x1000045FC, symSize: 0x28 }
  - { offsetInCU: 0x10400, offset: 0x130DA, size: 0x8, addend: 0x0, symName: __ZNSt3__112basic_stringIcNS_11char_traitsIcEENS_9allocatorIcEEE19__get_short_pointerB7v160006Ev, symObjAddr: 0x3244, symBinAddr: 0x100004624, symSize: 0x28 }
  - { offsetInCU: 0x10426, offset: 0x13100, size: 0x8, addend: 0x0, symName: __ZNSt3__114pointer_traitsIPcE10pointer_toB7v160006ERc, symObjAddr: 0x326C, symBinAddr: 0x10000464C, symSize: 0x14 }
  - { offsetInCU: 0x10465, offset: 0x1313F, size: 0x8, addend: 0x0, symName: __ZNKSt3__114__copy_trivialclB7v160006IKccLi0EEENS_4pairIPT_PT0_EES5_S5_S7_, symObjAddr: 0x34A0, symBinAddr: 0x100004880, symSize: 0x48 }
  - { offsetInCU: 0x104EF, offset: 0x131C9, size: 0x8, addend: 0x0, symName: __ZNSt3__14pairIPKcS2_EC1B7v160006IS2_S2_LPv0EEEOT_OT0_, symObjAddr: 0x3608, symBinAddr: 0x1000049E8, symSize: 0x3C }
  - { offsetInCU: 0x1054D, offset: 0x13227, size: 0x8, addend: 0x0, symName: __ZNSt3__14pairIPKcS2_EC2B7v160006IS2_S2_LPv0EEEOT_OT0_, symObjAddr: 0x3644, symBinAddr: 0x100004A24, symSize: 0x34 }
  - { offsetInCU: 0x105AB, offset: 0x13285, size: 0x8, addend: 0x0, symName: __ZNSt3__118__unwrap_iter_implIPKcLb1EE8__unwrapB7v160006ES2_, symObjAddr: 0x3678, symBinAddr: 0x100004A58, symSize: 0x24 }
  - { offsetInCU: 0x105DA, offset: 0x132B4, size: 0x8, addend: 0x0, symName: __ZNSt3__14pairIPKcPcEC1B7v160006IRS2_S3_LPv0EEEOT_OT0_, symObjAddr: 0x3764, symBinAddr: 0x100004B44, symSize: 0x3C }
  - { offsetInCU: 0x10638, offset: 0x13312, size: 0x8, addend: 0x0, symName: __ZNSt3__14pairIPKcPcEC2B7v160006IRS2_S3_LPv0EEEOT_OT0_, symObjAddr: 0x37A0, symBinAddr: 0x100004B80, symSize: 0x34 }
  - { offsetInCU: 0x10696, offset: 0x13370, size: 0x8, addend: 0x0, symName: __ZNSt3__118__unwrap_iter_implIPcLb1EE8__unwrapB7v160006ES1_, symObjAddr: 0x37D4, symBinAddr: 0x100004BB4, symSize: 0x24 }
  - { offsetInCU: 0x106B9, offset: 0x13393, size: 0x8, addend: 0x0, symName: __ZNSt3__14pairIPKcPcEC1B7v160006IS2_S3_LPv0EEEOT_OT0_, symObjAddr: 0x37F8, symBinAddr: 0x100004BD8, symSize: 0x3C }
  - { offsetInCU: 0x10717, offset: 0x133F1, size: 0x8, addend: 0x0, symName: __ZNSt3__14pairIPKcPcEC2B7v160006IS2_S3_LPv0EEEOT_OT0_, symObjAddr: 0x3834, symBinAddr: 0x100004C14, symSize: 0x34 }
  - { offsetInCU: 0x10775, offset: 0x1344F, size: 0x8, addend: 0x0, symName: __ZNSt3__118__unwrap_iter_implIPKcLb1EE8__rewrapB7v160006ES2_S2_, symObjAddr: 0x38A4, symBinAddr: 0x100004C84, symSize: 0x48 }
  - { offsetInCU: 0x107A6, offset: 0x13480, size: 0x8, addend: 0x0, symName: __ZNSt3__118__unwrap_iter_implIPcLb1EE8__rewrapB7v160006ES1_S1_, symObjAddr: 0x38EC, symBinAddr: 0x100004CCC, symSize: 0x48 }
  - { offsetInCU: 0x107D7, offset: 0x134B1, size: 0x8, addend: 0x0, symName: __ZNKSt3__112basic_stringIcNS_11char_traitsIcEENS_9allocatorIcEEE13__get_pointerB7v160006Ev, symObjAddr: 0x3934, symBinAddr: 0x100004D14, symSize: 0x54 }
  - { offsetInCU: 0x107FD, offset: 0x134D7, size: 0x8, addend: 0x0, symName: __ZNKSt3__112basic_stringIcNS_11char_traitsIcEENS_9allocatorIcEEE18__get_long_pointerB7v160006Ev, symObjAddr: 0x3988, symBinAddr: 0x100004D68, symSize: 0x28 }
  - { offsetInCU: 0x10823, offset: 0x134FD, size: 0x8, addend: 0x0, symName: __ZNKSt3__112basic_stringIcNS_11char_traitsIcEENS_9allocatorIcEEE19__get_short_pointerB7v160006Ev, symObjAddr: 0x39B0, symBinAddr: 0x100004D90, symSize: 0x28 }
  - { offsetInCU: 0x10849, offset: 0x13523, size: 0x8, addend: 0x0, symName: __ZNSt3__114pointer_traitsIPKcE10pointer_toB7v160006ERS1_, symObjAddr: 0x39D8, symBinAddr: 0x100004DB8, symSize: 0x14 }
  - { offsetInCU: 0x1088D, offset: 0x13567, size: 0x8, addend: 0x0, symName: __ZNKSt3__113basic_ostreamIcNS_11char_traitsIcEEE6sentrycvbB7v160006Ev, symObjAddr: 0x3C94, symBinAddr: 0x100005074, symSize: 0x1C }
  - { offsetInCU: 0x108B3, offset: 0x1358D, size: 0x8, addend: 0x0, symName: __ZNSt3__119ostreambuf_iteratorIcNS_11char_traitsIcEEEC1B7v160006ERNS_13basic_ostreamIcS2_EE, symObjAddr: 0x3EF0, symBinAddr: 0x1000052D0, symSize: 0x34 }
  - { offsetInCU: 0x108EB, offset: 0x135C5, size: 0x8, addend: 0x0, symName: __ZNKSt3__18ios_base5flagsB7v160006Ev, symObjAddr: 0x3F24, symBinAddr: 0x100005304, symSize: 0x18 }
  - { offsetInCU: 0x10913, offset: 0x135ED, size: 0x8, addend: 0x0, symName: __ZNKSt3__19basic_iosIcNS_11char_traitsIcEEE4fillB7v160006Ev, symObjAddr: 0x3F3C, symBinAddr: 0x10000531C, symSize: 0x64 }
  - { offsetInCU: 0x1093B, offset: 0x13615, size: 0x8, addend: 0x0, symName: __ZNKSt3__119ostreambuf_iteratorIcNS_11char_traitsIcEEE6failedB7v160006Ev, symObjAddr: 0x3FA0, symBinAddr: 0x100005380, symSize: 0x24 }
  - { offsetInCU: 0x10961, offset: 0x1363B, size: 0x8, addend: 0x0, symName: __ZNSt3__19basic_iosIcNS_11char_traitsIcEEE8setstateB7v160006Ej, symObjAddr: 0x3FC4, symBinAddr: 0x1000053A4, symSize: 0x2C }
  - { offsetInCU: 0x10996, offset: 0x13670, size: 0x8, addend: 0x0, symName: __ZNKSt3__18ios_base5widthB7v160006Ev, symObjAddr: 0x3FF0, symBinAddr: 0x1000053D0, symSize: 0x18 }
  - { offsetInCU: 0x109BE, offset: 0x13698, size: 0x8, addend: 0x0, symName: __ZNSt3__115basic_streambufIcNS_11char_traitsIcEEE5sputnB7v160006EPKcl, symObjAddr: 0x4008, symBinAddr: 0x1000053E8, symSize: 0x3C }
  - { offsetInCU: 0x10A00, offset: 0x136DA, size: 0x8, addend: 0x0, symName: __ZNSt3__112basic_stringIcNS_11char_traitsIcEENS_9allocatorIcEEEC1B7v160006Emc, symObjAddr: 0x4044, symBinAddr: 0x100005424, symSize: 0x3C }
  - { offsetInCU: 0x10A48, offset: 0x13722, size: 0x8, addend: 0x0, symName: __ZNSt3__18ios_base5widthB7v160006El, symObjAddr: 0x4080, symBinAddr: 0x100005460, symSize: 0x2C }
  - { offsetInCU: 0x10A8E, offset: 0x13768, size: 0x8, addend: 0x0, symName: __ZNSt3__112basic_stringIcNS_11char_traitsIcEENS_9allocatorIcEEEC2B7v160006Emc, symObjAddr: 0x40AC, symBinAddr: 0x10000548C, symSize: 0x54 }
  - { offsetInCU: 0x10AD6, offset: 0x137B0, size: 0x8, addend: 0x0, symName: __ZNSt3__119ostreambuf_iteratorIcNS_11char_traitsIcEEEC2B7v160006ERNS_13basic_ostreamIcS2_EE, symObjAddr: 0x4100, symBinAddr: 0x1000054E0, symSize: 0x54 }
  - { offsetInCU: 0x10B0E, offset: 0x137E8, size: 0x8, addend: 0x0, symName: __ZNKSt3__19basic_iosIcNS_11char_traitsIcEEE5rdbufB7v160006Ev, symObjAddr: 0x4154, symBinAddr: 0x100005534, symSize: 0x24 }
  - { offsetInCU: 0x10B36, offset: 0x13810, size: 0x8, addend: 0x0, symName: __ZNKSt3__18ios_base5rdbufB7v160006Ev, symObjAddr: 0x4178, symBinAddr: 0x100005558, symSize: 0x18 }
  - { offsetInCU: 0x10B5C, offset: 0x13836, size: 0x8, addend: 0x0, symName: __ZNSt3__111char_traitsIcE11eq_int_typeEii, symObjAddr: 0x4190, symBinAddr: 0x100005570, symSize: 0x28 }
  - { offsetInCU: 0x10B8D, offset: 0x13867, size: 0x8, addend: 0x0, symName: __ZNSt3__111char_traitsIcE3eofEv, symObjAddr: 0x41B8, symBinAddr: 0x100005598, symSize: 0x8 }
  - { offsetInCU: 0x10BA1, offset: 0x1387B, size: 0x8, addend: 0x0, symName: __ZNSt3__18ios_base8setstateB7v160006Ej, symObjAddr: 0x41C0, symBinAddr: 0x1000055A0, symSize: 0x34 }
  - { offsetInCU: 0x10BD8, offset: 0x138B2, size: 0x8, addend: 0x0, symName: __ZNSt3__16threadC2IM12SharedBufferFvP4FileEJRPS2_RS4_EvEEOT_DpOT0_, symObjAddr: 0x41F4, symBinAddr: 0x1000055D4, symSize: 0x158 }
  - { offsetInCU: 0x10C7C, offset: 0x13956, size: 0x8, addend: 0x0, symName: __ZNSt3__110unique_ptrINS_15__thread_structENS_14default_deleteIS1_EEEC1B7v160006ILb1EvEEPS1_, symObjAddr: 0x434C, symBinAddr: 0x10000572C, symSize: 0x34 }
  - { offsetInCU: 0x10CBF, offset: 0x13999, size: 0x8, addend: 0x0, symName: __ZNSt3__15tupleIJNS_10unique_ptrINS_15__thread_structENS_14default_deleteIS2_EEEEM12SharedBufferFvP4FileEPS6_S8_EEC1B7v160006IJS5_SA_RSB_RS8_ELi0EEEDpOT_, symObjAddr: 0x4380, symBinAddr: 0x100005760, symSize: 0x4C }
  - { offsetInCU: 0x10DDF, offset: 0x13AB9, size: 0x8, addend: 0x0, symName: __ZNSt3__110unique_ptrINS_5tupleIJNS0_INS_15__thread_structENS_14default_deleteIS2_EEEEM12SharedBufferFvP4FileEPS6_S8_EEENS3_ISC_EEEC1B7v160006ILb1EvEEPSC_, symObjAddr: 0x43CC, symBinAddr: 0x1000057AC, symSize: 0x34 }
  - { offsetInCU: 0x10E22, offset: 0x13AFC, size: 0x8, addend: 0x0, symName: __ZNKSt3__110unique_ptrINS_5tupleIJNS0_INS_15__thread_structENS_14default_deleteIS2_EEEEM12SharedBufferFvP4FileEPS6_S8_EEENS3_ISC_EEE3getB7v160006Ev, symObjAddr: 0x44C8, symBinAddr: 0x1000058A8, symSize: 0x28 }
  - { offsetInCU: 0x10E48, offset: 0x13B22, size: 0x8, addend: 0x0, symName: __ZNSt3__110unique_ptrINS_5tupleIJNS0_INS_15__thread_structENS_14default_deleteIS2_EEEEM12SharedBufferFvP4FileEPS6_S8_EEENS3_ISC_EEE7releaseB7v160006Ev, symObjAddr: 0x44F0, symBinAddr: 0x1000058D0, symSize: 0x44 }
  - { offsetInCU: 0x10E7D, offset: 0x13B57, size: 0x8, addend: 0x0, symName: __ZNSt3__110unique_ptrINS_5tupleIJNS0_INS_15__thread_structENS_14default_deleteIS2_EEEEM12SharedBufferFvP4FileEPS6_S8_EEENS3_ISC_EEED1B7v160006Ev, symObjAddr: 0x4534, symBinAddr: 0x100005914, symSize: 0x2C }
  - { offsetInCU: 0x10EA7, offset: 0x13B81, size: 0x8, addend: 0x0, symName: __ZNSt3__110unique_ptrINS_15__thread_structENS_14default_deleteIS1_EEED1B7v160006Ev, symObjAddr: 0x4560, symBinAddr: 0x100005940, symSize: 0x2C }
  - { offsetInCU: 0x10ED1, offset: 0x13BAB, size: 0x8, addend: 0x0, symName: __ZNSt3__110unique_ptrINS_15__thread_structENS_14default_deleteIS1_EEEC2B7v160006ILb1EvEEPS1_, symObjAddr: 0x458C, symBinAddr: 0x10000596C, symSize: 0x44 }
  - { offsetInCU: 0x10F1A, offset: 0x13BF4, size: 0x8, addend: 0x0, symName: __ZNSt3__117__compressed_pairIPNS_15__thread_structENS_14default_deleteIS1_EEEC1B7v160006IRS2_NS_16__value_init_tagEEEOT_OT0_, symObjAddr: 0x45D0, symBinAddr: 0x1000059B0, symSize: 0x3C }
  - { offsetInCU: 0x10F72, offset: 0x13C4C, size: 0x8, addend: 0x0, symName: __ZNSt3__117__compressed_pairIPNS_15__thread_structENS_14default_deleteIS1_EEEC2B7v160006IRS2_NS_16__value_init_tagEEEOT_OT0_, symObjAddr: 0x460C, symBinAddr: 0x1000059EC, symSize: 0x40 }
  - { offsetInCU: 0x10FCA, offset: 0x13CA4, size: 0x8, addend: 0x0, symName: __ZNSt3__122__compressed_pair_elemIPNS_15__thread_structELi0ELb0EEC2B7v160006IRS2_vEEOT_, symObjAddr: 0x464C, symBinAddr: 0x100005A2C, symSize: 0x24 }
  - { offsetInCU: 0x1100C, offset: 0x13CE6, size: 0x8, addend: 0x0, symName: __ZNSt3__122__compressed_pair_elemINS_14default_deleteINS_15__thread_structEEELi1ELb1EEC2B7v160006ENS_16__value_init_tagE, symObjAddr: 0x4670, symBinAddr: 0x100005A50, symSize: 0x14 }
  - { offsetInCU: 0x11041, offset: 0x13D1B, size: 0x8, addend: 0x0, symName: __ZNSt3__15tupleIJNS_10unique_ptrINS_15__thread_structENS_14default_deleteIS2_EEEEM12SharedBufferFvP4FileEPS6_S8_EEC2B7v160006IJS5_SA_RSB_RS8_ELi0EEEDpOT_, symObjAddr: 0x4684, symBinAddr: 0x100005A64, symSize: 0x4C }
  - { offsetInCU: 0x110C7, offset: 0x13DA1, size: 0x8, addend: 0x0, symName: __ZNSt3__112__tuple_implINS_15__tuple_indicesIJLm0ELm1ELm2ELm3EEEEJNS_10unique_ptrINS_15__thread_structENS_14default_deleteIS4_EEEEM12SharedBufferFvP4FileEPS8_SA_EEC1B7v160006IJLm0ELm1ELm2ELm3EEJS7_SC_SD_SA_EJEJEJS7_SC_RSD_RSA_EEENS1_IJXspT_EEEENS_13__tuple_typesIJDpT0_EEENS1_IJXspT1_EEEENSJ_IJDpT2_EEEDpOT3_, symObjAddr: 0x46D0, symBinAddr: 0x100005AB0, symSize: 0x4C }
  - { offsetInCU: 0x111B9, offset: 0x13E93, size: 0x8, addend: 0x0, symName: __ZNSt3__112__tuple_implINS_15__tuple_indicesIJLm0ELm1ELm2ELm3EEEEJNS_10unique_ptrINS_15__thread_structENS_14default_deleteIS4_EEEEM12SharedBufferFvP4FileEPS8_SA_EEC2B7v160006IJLm0ELm1ELm2ELm3EEJS7_SC_SD_SA_EJEJEJS7_SC_RSD_RSA_EEENS1_IJXspT_EEEENS_13__tuple_typesIJDpT0_EEENS1_IJXspT1_EEEENSJ_IJDpT2_EEEDpOT3_, symObjAddr: 0x471C, symBinAddr: 0x100005AFC, symSize: 0x70 }
  - { offsetInCU: 0x112AB, offset: 0x13F85, size: 0x8, addend: 0x0, symName: __ZNSt3__112__tuple_leafILm0ENS_10unique_ptrINS_15__thread_structENS_14default_deleteIS2_EEEELb0EEC2B7v160006IS5_vEEOT_, symObjAddr: 0x478C, symBinAddr: 0x100005B6C, symSize: 0x34 }
  - { offsetInCU: 0x112EE, offset: 0x13FC8, size: 0x8, addend: 0x0, symName: __ZNSt3__112__tuple_leafILm1EM12SharedBufferFvP4FileELb0EEC2B7v160006IS5_vEEOT_, symObjAddr: 0x47C0, symBinAddr: 0x100005BA0, symSize: 0x2C }
  - { offsetInCU: 0x11331, offset: 0x1400B, size: 0x8, addend: 0x0, symName: __ZNSt3__112__tuple_leafILm2EP12SharedBufferLb0EEC2B7v160006IRS2_vEEOT_, symObjAddr: 0x47EC, symBinAddr: 0x100005BCC, symSize: 0x24 }
  - { offsetInCU: 0x11374, offset: 0x1404E, size: 0x8, addend: 0x0, symName: __ZNSt3__112__tuple_leafILm3EP4FileLb0EEC2B7v160006IRS2_vEEOT_, symObjAddr: 0x4810, symBinAddr: 0x100005BF0, symSize: 0x24 }
  - { offsetInCU: 0x113B7, offset: 0x14091, size: 0x8, addend: 0x0, symName: __ZNSt3__110unique_ptrINS_15__thread_structENS_14default_deleteIS1_EEEC1B7v160006EOS4_, symObjAddr: 0x4834, symBinAddr: 0x100005C14, symSize: 0x34 }
  - { offsetInCU: 0x113EF, offset: 0x140C9, size: 0x8, addend: 0x0, symName: __ZNSt3__110unique_ptrINS_15__thread_structENS_14default_deleteIS1_EEEC2B7v160006EOS4_, symObjAddr: 0x4868, symBinAddr: 0x100005C48, symSize: 0x60 }
  - { offsetInCU: 0x11427, offset: 0x14101, size: 0x8, addend: 0x0, symName: __ZNSt3__110unique_ptrINS_15__thread_structENS_14default_deleteIS1_EEE7releaseB7v160006Ev, symObjAddr: 0x48C8, symBinAddr: 0x100005CA8, symSize: 0x44 }
  - { offsetInCU: 0x1145C, offset: 0x14136, size: 0x8, addend: 0x0, symName: __ZNSt3__110unique_ptrINS_15__thread_structENS_14default_deleteIS1_EEE11get_deleterB7v160006Ev, symObjAddr: 0x490C, symBinAddr: 0x100005CEC, symSize: 0x24 }
  - { offsetInCU: 0x1148E, offset: 0x14168, size: 0x8, addend: 0x0, symName: __ZNSt3__117__compressed_pairIPNS_15__thread_structENS_14default_deleteIS1_EEEC1B7v160006IS2_S4_EEOT_OT0_, symObjAddr: 0x4930, symBinAddr: 0x100005D10, symSize: 0x3C }
  - { offsetInCU: 0x114E6, offset: 0x141C0, size: 0x8, addend: 0x0, symName: __ZNSt3__117__compressed_pairIPNS_15__thread_structENS_14default_deleteIS1_EEE5firstB7v160006Ev, symObjAddr: 0x496C, symBinAddr: 0x100005D4C, symSize: 0x24 }
  - { offsetInCU: 0x1150C, offset: 0x141E6, size: 0x8, addend: 0x0, symName: __ZNSt3__122__compressed_pair_elemIPNS_15__thread_structELi0ELb0EE5__getB7v160006Ev, symObjAddr: 0x4990, symBinAddr: 0x100005D70, symSize: 0x14 }
  - { offsetInCU: 0x11532, offset: 0x1420C, size: 0x8, addend: 0x0, symName: __ZNSt3__117__compressed_pairIPNS_15__thread_structENS_14default_deleteIS1_EEE6secondB7v160006Ev, symObjAddr: 0x49A4, symBinAddr: 0x100005D84, symSize: 0x24 }
  - { offsetInCU: 0x11558, offset: 0x14232, size: 0x8, addend: 0x0, symName: __ZNSt3__122__compressed_pair_elemINS_14default_deleteINS_15__thread_structEEELi1ELb1EE5__getB7v160006Ev, symObjAddr: 0x49C8, symBinAddr: 0x100005DA8, symSize: 0x14 }
  - { offsetInCU: 0x1157E, offset: 0x14258, size: 0x8, addend: 0x0, symName: __ZNSt3__117__compressed_pairIPNS_15__thread_structENS_14default_deleteIS1_EEEC2B7v160006IS2_S4_EEOT_OT0_, symObjAddr: 0x49DC, symBinAddr: 0x100005DBC, symSize: 0x44 }
  - { offsetInCU: 0x115D6, offset: 0x142B0, size: 0x8, addend: 0x0, symName: __ZNSt3__122__compressed_pair_elemIPNS_15__thread_structELi0ELb0EEC2B7v160006IS2_vEEOT_, symObjAddr: 0x4A20, symBinAddr: 0x100005E00, symSize: 0x24 }
  - { offsetInCU: 0x11618, offset: 0x142F2, size: 0x8, addend: 0x0, symName: __ZNSt3__122__compressed_pair_elemINS_14default_deleteINS_15__thread_structEEELi1ELb1EEC2B7v160006IS3_vEEOT_, symObjAddr: 0x4A44, symBinAddr: 0x100005E24, symSize: 0x18 }
  - { offsetInCU: 0x1165A, offset: 0x14334, size: 0x8, addend: 0x0, symName: __ZNSt3__110unique_ptrINS_5tupleIJNS0_INS_15__thread_structENS_14default_deleteIS2_EEEEM12SharedBufferFvP4FileEPS6_S8_EEENS3_ISC_EEEC2B7v160006ILb1EvEEPSC_, symObjAddr: 0x4A5C, symBinAddr: 0x100005E3C, symSize: 0x44 }
  - { offsetInCU: 0x1169D, offset: 0x14377, size: 0x8, addend: 0x0, symName: __ZNSt3__117__compressed_pairIPNS_5tupleIJNS_10unique_ptrINS_15__thread_structENS_14default_deleteIS3_EEEEM12SharedBufferFvP4FileEPS7_S9_EEENS4_ISD_EEEC1B7v160006IRSE_NS_16__value_init_tagEEEOT_OT0_, symObjAddr: 0x4AA0, symBinAddr: 0x100005E80, symSize: 0x3C }
  - { offsetInCU: 0x116F5, offset: 0x143CF, size: 0x8, addend: 0x0, symName: __ZNSt3__117__compressed_pairIPNS_5tupleIJNS_10unique_ptrINS_15__thread_structENS_14default_deleteIS3_EEEEM12SharedBufferFvP4FileEPS7_S9_EEENS4_ISD_EEEC2B7v160006IRSE_NS_16__value_init_tagEEEOT_OT0_, symObjAddr: 0x4ADC, symBinAddr: 0x100005EBC, symSize: 0x40 }
  - { offsetInCU: 0x1174D, offset: 0x14427, size: 0x8, addend: 0x0, symName: __ZNSt3__122__compressed_pair_elemIPNS_5tupleIJNS_10unique_ptrINS_15__thread_structENS_14default_deleteIS3_EEEEM12SharedBufferFvP4FileEPS7_S9_EEELi0ELb0EEC2B7v160006IRSE_vEEOT_, symObjAddr: 0x4B1C, symBinAddr: 0x100005EFC, symSize: 0x24 }
  - { offsetInCU: 0x1178F, offset: 0x14469, size: 0x8, addend: 0x0, symName: __ZNSt3__122__compressed_pair_elemINS_14default_deleteINS_5tupleIJNS_10unique_ptrINS_15__thread_structENS1_IS4_EEEEM12SharedBufferFvP4FileEPS7_S9_EEEEELi1ELb1EEC2B7v160006ENS_16__value_init_tagE, symObjAddr: 0x4B40, symBinAddr: 0x100005F20, symSize: 0x14 }
  - { offsetInCU: 0x117F5, offset: 0x144CF, size: 0x8, addend: 0x0, symName: __ZNSt3__121__thread_specific_ptrINS_15__thread_structEE11set_pointerEPS1_, symObjAddr: 0x4B54, symBinAddr: 0x100005F34, symSize: 0x30 }
  - { offsetInCU: 0x1182A, offset: 0x14504, size: 0x8, addend: 0x0, symName: __ZNSt3__112__tuple_leafILm0ENS_10unique_ptrINS_15__thread_structENS_14default_deleteIS2_EEEELb0EE3getB7v160006Ev, symObjAddr: 0x4C20, symBinAddr: 0x100006000, symSize: 0x14 }
  - { offsetInCU: 0x11850, offset: 0x1452A, size: 0x8, addend: 0x0, symName: __ZNSt3__112__tuple_leafILm1EM12SharedBufferFvP4FileELb0EE3getB7v160006Ev, symObjAddr: 0x4D38, symBinAddr: 0x100006118, symSize: 0x14 }
  - { offsetInCU: 0x11876, offset: 0x14550, size: 0x8, addend: 0x0, symName: __ZNSt3__112__tuple_leafILm2EP12SharedBufferLb0EE3getB7v160006Ev, symObjAddr: 0x4D4C, symBinAddr: 0x10000612C, symSize: 0x14 }
  - { offsetInCU: 0x1189C, offset: 0x14576, size: 0x8, addend: 0x0, symName: __ZNSt3__112__tuple_leafILm3EP4FileLb0EE3getB7v160006Ev, symObjAddr: 0x4D60, symBinAddr: 0x100006140, symSize: 0x14 }
  - { offsetInCU: 0x118C2, offset: 0x1459C, size: 0x8, addend: 0x0, symName: __ZNKSt3__117__compressed_pairIPNS_5tupleIJNS_10unique_ptrINS_15__thread_structENS_14default_deleteIS3_EEEEM12SharedBufferFvP4FileEPS7_S9_EEENS4_ISD_EEE5firstB7v160006Ev, symObjAddr: 0x4D74, symBinAddr: 0x100006154, symSize: 0x24 }
  - { offsetInCU: 0x118E8, offset: 0x145C2, size: 0x8, addend: 0x0, symName: __ZNKSt3__122__compressed_pair_elemIPNS_5tupleIJNS_10unique_ptrINS_15__thread_structENS_14default_deleteIS3_EEEEM12SharedBufferFvP4FileEPS7_S9_EEELi0ELb0EE5__getB7v160006Ev, symObjAddr: 0x4D98, symBinAddr: 0x100006178, symSize: 0x14 }
  - { offsetInCU: 0x1190E, offset: 0x145E8, size: 0x8, addend: 0x0, symName: __ZNSt3__117__compressed_pairIPNS_5tupleIJNS_10unique_ptrINS_15__thread_structENS_14default_deleteIS3_EEEEM12SharedBufferFvP4FileEPS7_S9_EEENS4_ISD_EEE5firstB7v160006Ev, symObjAddr: 0x4DAC, symBinAddr: 0x10000618C, symSize: 0x24 }
  - { offsetInCU: 0x11934, offset: 0x1460E, size: 0x8, addend: 0x0, symName: __ZNSt3__122__compressed_pair_elemIPNS_5tupleIJNS_10unique_ptrINS_15__thread_structENS_14default_deleteIS3_EEEEM12SharedBufferFvP4FileEPS7_S9_EEELi0ELb0EE5__getB7v160006Ev, symObjAddr: 0x4DD0, symBinAddr: 0x1000061B0, symSize: 0x14 }
  - { offsetInCU: 0x1195A, offset: 0x14634, size: 0x8, addend: 0x0, symName: __ZNSt3__110unique_ptrINS_5tupleIJNS0_INS_15__thread_structENS_14default_deleteIS2_EEEEM12SharedBufferFvP4FileEPS6_S8_EEENS3_ISC_EEED2B7v160006Ev, symObjAddr: 0x4DE4, symBinAddr: 0x1000061C4, symSize: 0x30 }
  - { offsetInCU: 0x11984, offset: 0x1465E, size: 0x8, addend: 0x0, symName: __ZNSt3__110unique_ptrINS_5tupleIJNS0_INS_15__thread_structENS_14default_deleteIS2_EEEEM12SharedBufferFvP4FileEPS6_S8_EEENS3_ISC_EEE5resetB7v160006EPSC_, symObjAddr: 0x4E14, symBinAddr: 0x1000061F4, symSize: 0x78 }
  - { offsetInCU: 0x119C8, offset: 0x146A2, size: 0x8, addend: 0x0, symName: __ZNSt3__117__compressed_pairIPNS_5tupleIJNS_10unique_ptrINS_15__thread_structENS_14default_deleteIS3_EEEEM12SharedBufferFvP4FileEPS7_S9_EEENS4_ISD_EEE6secondB7v160006Ev, symObjAddr: 0x4E8C, symBinAddr: 0x10000626C, symSize: 0x24 }
  - { offsetInCU: 0x119EE, offset: 0x146C8, size: 0x8, addend: 0x0, symName: __ZNKSt3__114default_deleteINS_5tupleIJNS_10unique_ptrINS_15__thread_structENS0_IS3_EEEEM12SharedBufferFvP4FileEPS6_S8_EEEEclB7v160006EPSC_, symObjAddr: 0x4EB0, symBinAddr: 0x100006290, symSize: 0x4C }
  - { offsetInCU: 0x11A22, offset: 0x146FC, size: 0x8, addend: 0x0, symName: __ZNSt3__122__compressed_pair_elemINS_14default_deleteINS_5tupleIJNS_10unique_ptrINS_15__thread_structENS1_IS4_EEEEM12SharedBufferFvP4FileEPS7_S9_EEEEELi1ELb1EE5__getB7v160006Ev, symObjAddr: 0x4EFC, symBinAddr: 0x1000062DC, symSize: 0x14 }
  - { offsetInCU: 0x11A48, offset: 0x14722, size: 0x8, addend: 0x0, symName: __ZNSt3__15tupleIJNS_10unique_ptrINS_15__thread_structENS_14default_deleteIS2_EEEEM12SharedBufferFvP4FileEPS6_S8_EED1Ev, symObjAddr: 0x4F10, symBinAddr: 0x1000062F0, symSize: 0x2C }
  - { offsetInCU: 0x11A75, offset: 0x1474F, size: 0x8, addend: 0x0, symName: __ZNSt3__15tupleIJNS_10unique_ptrINS_15__thread_structENS_14default_deleteIS2_EEEEM12SharedBufferFvP4FileEPS6_S8_EED2Ev, symObjAddr: 0x4F3C, symBinAddr: 0x10000631C, symSize: 0x2C }
  - { offsetInCU: 0x11AA2, offset: 0x1477C, size: 0x8, addend: 0x0, symName: __ZNSt3__112__tuple_implINS_15__tuple_indicesIJLm0ELm1ELm2ELm3EEEEJNS_10unique_ptrINS_15__thread_structENS_14default_deleteIS4_EEEEM12SharedBufferFvP4FileEPS8_SA_EED1Ev, symObjAddr: 0x4F68, symBinAddr: 0x100006348, symSize: 0x2C }
  - { offsetInCU: 0x11ACF, offset: 0x147A9, size: 0x8, addend: 0x0, symName: __ZNSt3__112__tuple_implINS_15__tuple_indicesIJLm0ELm1ELm2ELm3EEEEJNS_10unique_ptrINS_15__thread_structENS_14default_deleteIS4_EEEEM12SharedBufferFvP4FileEPS8_SA_EED2Ev, symObjAddr: 0x4F94, symBinAddr: 0x100006374, symSize: 0x2C }
  - { offsetInCU: 0x11AFC, offset: 0x147D6, size: 0x8, addend: 0x0, symName: __ZNSt3__112__tuple_leafILm0ENS_10unique_ptrINS_15__thread_structENS_14default_deleteIS2_EEEELb0EED2Ev, symObjAddr: 0x4FC0, symBinAddr: 0x1000063A0, symSize: 0x2C }
  - { offsetInCU: 0x11B29, offset: 0x14803, size: 0x8, addend: 0x0, symName: __ZNSt3__110unique_ptrINS_15__thread_structENS_14default_deleteIS1_EEED2B7v160006Ev, symObjAddr: 0x4FEC, symBinAddr: 0x1000063CC, symSize: 0x30 }
  - { offsetInCU: 0x11B53, offset: 0x1482D, size: 0x8, addend: 0x0, symName: __ZNSt3__110unique_ptrINS_15__thread_structENS_14default_deleteIS1_EEE5resetB7v160006EPS1_, symObjAddr: 0x501C, symBinAddr: 0x1000063FC, symSize: 0x78 }
  - { offsetInCU: 0x11B97, offset: 0x14871, size: 0x8, addend: 0x0, symName: __ZNKSt3__114default_deleteINS_15__thread_structEEclB7v160006EPS1_, symObjAddr: 0x5094, symBinAddr: 0x100006474, symSize: 0x4C }
  - { offsetInCU: 0x3F, offset: 0x14AFC, size: 0x8, addend: 0x0, symName: __ZL11ITEM_FIELDS, symObjAddr: 0x29918, symBinAddr: 0x1000200A8, symSize: 0x0 }
  - { offsetInCU: 0x5395, offset: 0x19E52, size: 0x8, addend: 0x0, symName: __ZNSt3__1lsB7v160006INS_11char_traitsIcEEEERNS_13basic_ostreamIcT_EES6_PKc, symObjAddr: 0x388, symBinAddr: 0x100006A24, symSize: 0x48 }
  - { offsetInCU: 0x5498, offset: 0x19F55, size: 0x8, addend: 0x0, symName: __ZL8ITEM_MIN, symObjAddr: 0x29930, symBinAddr: 0x1000200C0, symSize: 0x0 }
  - { offsetInCU: 0x559A, offset: 0x1A057, size: 0x8, addend: 0x0, symName: __ZL8ITEM_MAX, symObjAddr: 0x29978, symBinAddr: 0x100020108, symSize: 0x0 }
  - { offsetInCU: 0x76B0, offset: 0x1C16D, size: 0x8, addend: 0x0, symName: __ZN4FileC2EPKcyi, symObjAddr: 0xC8, symBinAddr: 0x100006764, symSize: 0x110 }
  - { offsetInCU: 0x7706, offset: 0x1C1C3, size: 0x8, addend: 0x0, symName: __ZNSt3__113basic_fstreamIcNS_11char_traitsIcEEEC1Ev, symObjAddr: 0x1D8, symBinAddr: 0x100006874, symSize: 0x100 }
  - { offsetInCU: 0x7732, offset: 0x1C1EF, size: 0x8, addend: 0x0, symName: __ZNSt3__113basic_fstreamIcNS_11char_traitsIcEEE4openEPKcj, symObjAddr: 0x2D8, symBinAddr: 0x100006974, symSize: 0x84 }
  - { offsetInCU: 0x7778, offset: 0x1C235, size: 0x8, addend: 0x0, symName: __ZNKSt3__113basic_fstreamIcNS_11char_traitsIcEEE7is_openEv, symObjAddr: 0x35C, symBinAddr: 0x1000069F8, symSize: 0x2C }
  - { offsetInCU: 0x77A5, offset: 0x1C262, size: 0x8, addend: 0x0, symName: __ZNSt3__113basic_fstreamIcNS_11char_traitsIcEEED1Ev, symObjAddr: 0x454, symBinAddr: 0x100006A6C, symSize: 0x40 }
  - { offsetInCU: 0x77D1, offset: 0x1C28E, size: 0x8, addend: 0x0, symName: __ZN4FileC1EPKcyi, symObjAddr: 0x494, symBinAddr: 0x100006AAC, symSize: 0x44 }
  - { offsetInCU: 0x7827, offset: 0x1C2E4, size: 0x8, addend: 0x0, symName: __ZN4FileD2Ev, symObjAddr: 0x4D8, symBinAddr: 0x100006AF0, symSize: 0x6C }
  - { offsetInCU: 0x7853, offset: 0x1C310, size: 0x8, addend: 0x0, symName: __ZNSt3__113basic_fstreamIcNS_11char_traitsIcEEE5closeEv, symObjAddr: 0x550, symBinAddr: 0x100006B5C, symSize: 0x58 }
  - { offsetInCU: 0x787B, offset: 0x1C338, size: 0x8, addend: 0x0, symName: __ZN4FileD1Ev, symObjAddr: 0x5A8, symBinAddr: 0x100006BB4, symSize: 0x2C }
  - { offsetInCU: 0x78A7, offset: 0x1C364, size: 0x8, addend: 0x0, symName: __ZN4File5writeEPKci, symObjAddr: 0x5D4, symBinAddr: 0x100006BE0, symSize: 0x78 }
  - { offsetInCU: 0x78EB, offset: 0x1C3A8, size: 0x8, addend: 0x0, symName: __ZN4File4readEjyj, symObjAddr: 0x64C, symBinAddr: 0x100006C58, symSize: 0x140 }
  - { offsetInCU: 0x797C, offset: 0x1C439, size: 0x8, addend: 0x0, symName: __ZNSt3__14fposI11__mbstate_tEC1B7v160006Ex, symObjAddr: 0x78C, symBinAddr: 0x100006D98, symSize: 0x34 }
  - { offsetInCU: 0x79B4, offset: 0x1C471, size: 0x8, addend: 0x0, symName: __ZN4File6isFullEv, symObjAddr: 0x7C0, symBinAddr: 0x100006DCC, symSize: 0x28 }
  - { offsetInCU: 0x79DC, offset: 0x1C499, size: 0x8, addend: 0x0, symName: __ZN4File12getBlockSizeEv, symObjAddr: 0x7E8, symBinAddr: 0x100006DF4, symSize: 0x18 }
  - { offsetInCU: 0x7A04, offset: 0x1C4C1, size: 0x8, addend: 0x0, symName: __ZN4File9addRunNumEv, symObjAddr: 0x800, symBinAddr: 0x100006E0C, symSize: 0x20 }
  - { offsetInCU: 0x7A2C, offset: 0x1C4E9, size: 0x8, addend: 0x0, symName: __ZNSt3__113basic_fstreamIcNS_11char_traitsIcEEED2Ev, symObjAddr: 0x884, symBinAddr: 0x100006E2C, symSize: 0x6C }
  - { offsetInCU: 0x7A65, offset: 0x1C522, size: 0x8, addend: 0x0, symName: __ZThn16_NSt3__113basic_fstreamIcNS_11char_traitsIcEEED1Ev, symObjAddr: 0x8F0, symBinAddr: 0x100006E98, symSize: 0x1C }
  - { offsetInCU: 0x7A7B, offset: 0x1C538, size: 0x8, addend: 0x0, symName: __ZTv0_n24_NSt3__113basic_fstreamIcNS_11char_traitsIcEEED1Ev, symObjAddr: 0x90C, symBinAddr: 0x100006EB4, symSize: 0x28 }
  - { offsetInCU: 0x7A91, offset: 0x1C54E, size: 0x8, addend: 0x0, symName: __ZNSt3__113basic_fstreamIcNS_11char_traitsIcEEED0Ev, symObjAddr: 0x934, symBinAddr: 0x100006EDC, symSize: 0x30 }
  - { offsetInCU: 0x7ABD, offset: 0x1C57A, size: 0x8, addend: 0x0, symName: __ZThn16_NSt3__113basic_fstreamIcNS_11char_traitsIcEEED0Ev, symObjAddr: 0x964, symBinAddr: 0x100006F0C, symSize: 0x18 }
  - { offsetInCU: 0x7AD3, offset: 0x1C590, size: 0x8, addend: 0x0, symName: __ZTv0_n24_NSt3__113basic_fstreamIcNS_11char_traitsIcEEED0Ev, symObjAddr: 0x97C, symBinAddr: 0x100006F24, symSize: 0x20 }
  - { offsetInCU: 0x7B04, offset: 0x1C5C1, size: 0x8, addend: 0x0, symName: __ZNSt3__19basic_iosIcNS_11char_traitsIcEEEC2B7v160006Ev, symObjAddr: 0x2228, symBinAddr: 0x100006F44, symSize: 0x44 }
  - { offsetInCU: 0x7B2E, offset: 0x1C5EB, size: 0x8, addend: 0x0, symName: __ZNSt3__114basic_iostreamIcNS_11char_traitsIcEEEC2B7v160006EPNS_15basic_streambufIcS2_EE, symObjAddr: 0x226C, symBinAddr: 0x100006F88, symSize: 0xAC }
  - { offsetInCU: 0x7B74, offset: 0x1C631, size: 0x8, addend: 0x0, symName: __ZNSt3__18ios_baseC2B7v160006Ev, symObjAddr: 0x2318, symBinAddr: 0x100007034, symSize: 0x24 }
  - { offsetInCU: 0x7B9E, offset: 0x1C65B, size: 0x8, addend: 0x0, symName: __ZNSt3__113basic_istreamIcNS_11char_traitsIcEEEC2B7v160006EPNS_15basic_streambufIcS2_EE, symObjAddr: 0x233C, symBinAddr: 0x100007058, symSize: 0x64 }
  - { offsetInCU: 0x7BE3, offset: 0x1C6A0, size: 0x8, addend: 0x0, symName: __ZNSt3__113basic_ostreamIcNS_11char_traitsIcEEEC2B7v160006Ev, symObjAddr: 0x23A0, symBinAddr: 0x1000070BC, symSize: 0x34 }
  - { offsetInCU: 0x7C1A, offset: 0x1C6D7, size: 0x8, addend: 0x0, symName: __ZNSt3__19basic_iosIcNS_11char_traitsIcEEE4initB7v160006EPNS_15basic_streambufIcS2_EE, symObjAddr: 0x23D4, symBinAddr: 0x1000070F0, symSize: 0x44 }
  - { offsetInCU: 0x7C51, offset: 0x1C70E, size: 0x8, addend: 0x0, symName: __ZNSt3__19basic_iosIcNS_11char_traitsIcEEE5clearB7v160006Ej, symObjAddr: 0x2420, symBinAddr: 0x100007134, symSize: 0x2C }
  - { offsetInCU: 0x7C86, offset: 0x1C743, size: 0x8, addend: 0x0, symName: __ZNKSt3__113basic_filebufIcNS_11char_traitsIcEEE7is_openEv, symObjAddr: 0x24AC, symBinAddr: 0x100007160, symSize: 0x24 }
  - { offsetInCU: 0x7CCF, offset: 0x1C78C, size: 0x8, addend: 0x0, symName: __ZNSt3__14fposI11__mbstate_tEC2B7v160006Ex, symObjAddr: 0x2E00, symBinAddr: 0x100007184, symSize: 0x40 }
  - { offsetInCU: 0x3F, offset: 0x1C82F, size: 0x8, addend: 0x0, symName: __ZL11ITEM_FIELDS, symObjAddr: 0x641B0, symBinAddr: 0x100020150, symSize: 0x0 }
  - { offsetInCU: 0x2A75, offset: 0x1F265, size: 0x8, addend: 0x0, symName: __ZNSt3__1L19piecewise_constructE, symObjAddr: 0xA0BE, symBinAddr: 0x10001AF1D, symSize: 0x0 }
  - { offsetInCU: 0xA653, offset: 0x26E43, size: 0x8, addend: 0x0, symName: __ZNSt3__1neB7v160006IPK9ItemFieldEEbRKNS_11__wrap_iterIT_EES8_, symObjAddr: 0xADC, symBinAddr: 0x100007E70, symSize: 0x34 }
  - { offsetInCU: 0xA696, offset: 0x26E86, size: 0x8, addend: 0x0, symName: __ZNSt3__1neB7v160006ERKNS_25__hash_map_const_iteratorINS_21__hash_const_iteratorIPNS_11__hash_nodeINS_17__hash_value_typeI9ItemFieldNS_6vectorI9PredicateNS_9allocatorIS6_EEEEEEPvEEEEEESH_, symObjAddr: 0xB68, symBinAddr: 0x100007EFC, symSize: 0x30 }
  - { offsetInCU: 0xA6D3, offset: 0x26EC3, size: 0x8, addend: 0x0, symName: __ZNSt3__1neB7v160006IPK9PredicateEEbRKNS_11__wrap_iterIT_EES8_, symObjAddr: 0xC5C, symBinAddr: 0x100007FF0, symSize: 0x34 }
  - { offsetInCU: 0xA716, offset: 0x26F06, size: 0x8, addend: 0x0, symName: __ZNSt3__1eqB7v160006IPK9ItemFieldEEbRKNS_11__wrap_iterIT_EES8_, symObjAddr: 0x15B0, symBinAddr: 0x1000088E0, symSize: 0x48 }
  - { offsetInCU: 0xA759, offset: 0x26F49, size: 0x8, addend: 0x0, symName: __ZNSt3__1eqB7v160006IPK9PredicateEEbRKNS_11__wrap_iterIT_EES8_, symObjAddr: 0x1610, symBinAddr: 0x100008940, symSize: 0x48 }
  - { offsetInCU: 0xA79C, offset: 0x26F8C, size: 0x8, addend: 0x0, symName: __ZNSt3__119__debug_db_insert_cB7v160006INS_13unordered_mapI9ItemFieldNS_6vectorI9PredicateNS_9allocatorIS4_EEEENS_4hashIS2_EENS_8equal_toIS2_EENS5_INS_4pairIKS2_S7_EEEEEEEEvPT_, symObjAddr: 0x2F64, symBinAddr: 0x100008A08, symSize: 0x10 }
  - { offsetInCU: 0xA7CD, offset: 0x26FBD, size: 0x8, addend: 0x0, symName: __ZNSt3__118__debug_db_erase_cB7v160006INS_12__hash_tableINS_17__hash_value_typeI9ItemFieldNS_6vectorI9PredicateNS_9allocatorIS5_EEEEEENS_22__unordered_map_hasherIS3_S9_NS_4hashIS3_EENS_8equal_toIS3_EELb1EEENS_21__unordered_map_equalIS3_S9_SE_SC_Lb1EEENS6_IS9_EEEEEEvPT_, symObjAddr: 0x36E4, symBinAddr: 0x100009188, symSize: 0x10 }
  - { offsetInCU: 0xA831, offset: 0x27021, size: 0x8, addend: 0x0, symName: __ZNSt3__118__debug_db_erase_cB7v160006INS_6vectorI9PredicateNS_9allocatorIS2_EEEEEEvPT_, symObjAddr: 0x3AAC, symBinAddr: 0x100009550, symSize: 0x10 }
  - { offsetInCU: 0xA862, offset: 0x27052, size: 0x8, addend: 0x0, symName: __ZNSt3__112__to_addressB7v160006I9PredicateEEPT_S3_, symObjAddr: 0x3BF0, symBinAddr: 0x100009694, symSize: 0x14 }
  - { offsetInCU: 0xA8CF, offset: 0x270BF, size: 0x8, addend: 0x0, symName: __ZNSt3__116forward_as_tupleB7v160006IJRK9ItemFieldEEENS_5tupleIJDpOT_EEES7_, symObjAddr: 0x458C, symBinAddr: 0x10000A030, symSize: 0x2C }
  - { offsetInCU: 0xA908, offset: 0x270F8, size: 0x8, addend: 0x0, symName: __ZNSt3__116forward_as_tupleB7v160006IJEEENS_5tupleIJDpOT_EEES4_, symObjAddr: 0x45B8, symBinAddr: 0x10000A05C, symSize: 0x4 }
  - { offsetInCU: 0xA92D, offset: 0x2711D, size: 0x8, addend: 0x0, symName: __ZNSt3__116__constrain_hashB7v160006Emm, symObjAddr: 0x466C, symBinAddr: 0x10000A110, symSize: 0x98 }
  - { offsetInCU: 0xA968, offset: 0x27158, size: 0x8, addend: 0x0, symName: __ZNSt3__13maxB7v160006ImEERKT_S3_S3_, symObjAddr: 0x498C, symBinAddr: 0x10000A430, symSize: 0x2C }
  - { offsetInCU: 0xA9AB, offset: 0x2719B, size: 0x8, addend: 0x0, symName: __ZNSt3__116__is_hash_power2B7v160006Em, symObjAddr: 0x49B8, symBinAddr: 0x10000A45C, symSize: 0x50 }
  - { offsetInCU: 0xAA4E, offset: 0x2723E, size: 0x8, addend: 0x0, symName: __ZNSt3__13getB7v160006ILm0EJRK9ItemFieldEEERNS_13tuple_elementIXT_ENS_5tupleIJDpT0_EEEE4typeERS8_, symObjAddr: 0x5180, symBinAddr: 0x10000AC24, symSize: 0x24 }
  - { offsetInCU: 0xAA91, offset: 0x27281, size: 0x8, addend: 0x0, symName: __ZNSt3__119__debug_db_insert_cB7v160006INS_6vectorI9PredicateNS_9allocatorIS2_EEEEEEvPT_, symObjAddr: 0x527C, symBinAddr: 0x10000AD20, symSize: 0x10 }
  - { offsetInCU: 0xAAC2, offset: 0x272B2, size: 0x8, addend: 0x0, symName: __ZNSt3__116__next_hash_pow2B7v160006Em, symObjAddr: 0x5824, symBinAddr: 0x10000B2C8, symSize: 0x6C }
  - { offsetInCU: 0xAAEE, offset: 0x272DE, size: 0x8, addend: 0x0, symName: __ZNSt3__125__debug_db_invalidate_allB7v160006INS_12__hash_tableINS_17__hash_value_typeI9ItemFieldNS_6vectorI9PredicateNS_9allocatorIS5_EEEEEENS_22__unordered_map_hasherIS3_S9_NS_4hashIS3_EENS_8equal_toIS3_EELb1EEENS_21__unordered_map_equalIS3_S9_SE_SC_Lb1EEENS6_IS9_EEEEEEvPT_, symObjAddr: 0x5890, symBinAddr: 0x10000B334, symSize: 0x10 }
  - { offsetInCU: 0xAB3D, offset: 0x2732D, size: 0x8, addend: 0x0, symName: __ZNSt3__112__libcpp_clzB7v160006Em, symObjAddr: 0x59F8, symBinAddr: 0x10000B49C, symSize: 0x1C }
  - { offsetInCU: 0xAB6A, offset: 0x2735A, size: 0x8, addend: 0x0, symName: __ZNSt3__13maxB7v160006ImNS_6__lessImmEEEERKT_S5_S5_T0_, symObjAddr: 0x5A14, symBinAddr: 0x10000B4B8, symSize: 0x54 }
  - { offsetInCU: 0xAC0C, offset: 0x273FC, size: 0x8, addend: 0x0, symName: __ZNSt3__119__allocate_at_leastB7v160006INS_9allocatorI9PredicateEEEENS_19__allocation_resultINS_16allocator_traitsIT_E7pointerEEERS6_m, symObjAddr: 0x6548, symBinAddr: 0x10000BFEC, symSize: 0x40 }
  - { offsetInCU: 0xAC4F, offset: 0x2743F, size: 0x8, addend: 0x0, symName: __ZNSt3__142__uninitialized_allocator_move_if_noexceptB7v160006INS_9allocatorI9PredicateEENS_16reverse_iteratorIPS2_EES6_S6_EET2_RT_T0_T1_S7_, symObjAddr: 0x66FC, symBinAddr: 0x10000C1A0, symSize: 0x12C }
  - { offsetInCU: 0xACEF, offset: 0x274DF, size: 0x8, addend: 0x0, symName: __ZNSt3__14swapB7v160006IP9PredicateEENS_9enable_ifIXaasr21is_move_constructibleIT_EE5valuesr18is_move_assignableIS4_EE5valueEvE4typeERS4_S7_, symObjAddr: 0x6874, symBinAddr: 0x10000C318, symSize: 0x3C }
  - { offsetInCU: 0xAD41, offset: 0x27531, size: 0x8, addend: 0x0, symName: __ZNSt3__125__debug_db_invalidate_allB7v160006INS_6vectorI9PredicateNS_9allocatorIS2_EEEEEEvPT_, symObjAddr: 0x695C, symBinAddr: 0x10000C400, symSize: 0x10 }
  - { offsetInCU: 0xAD72, offset: 0x27562, size: 0x8, addend: 0x0, symName: __ZNSt3__122__make_exception_guardB7v160006INS_29_AllocatorDestroyRangeReverseINS_9allocatorI9PredicateEENS_16reverse_iteratorIPS3_EEEEEENS_28__exception_guard_exceptionsIT_EESA_, symObjAddr: 0x696C, symBinAddr: 0x10000C410, symSize: 0x4C }
  - { offsetInCU: 0xADA8, offset: 0x27598, size: 0x8, addend: 0x0, symName: __ZNSt3__1neB7v160006IP9PredicateS2_EEbRKNS_16reverse_iteratorIT_EERKNS3_IT0_EE, symObjAddr: 0x69FC, symBinAddr: 0x10000C4A0, symSize: 0x48 }
  - { offsetInCU: 0xADF4, offset: 0x275E4, size: 0x8, addend: 0x0, symName: __ZNSt3__112__to_addressB7v160006INS_16reverse_iteratorIP9PredicateEEvEENS_5decayIDTclsr19__to_address_helperIT_EE6__callclsr3stdE7declvalIRKS6_EEEEE4typeES8_, symObjAddr: 0x6A78, symBinAddr: 0x10000C51C, symSize: 0x24 }
  - { offsetInCU: 0xAE2A, offset: 0x2761A, size: 0x8, addend: 0x0, symName: __ZNSt3__115__debug_db_swapB7v160006INS_12basic_stringIcNS_11char_traitsIcEENS_9allocatorIcEEEEEEvPT_S8_, symObjAddr: 0x6DA4, symBinAddr: 0x10000C810, symSize: 0x14 }
  - { offsetInCU: 0xAE93, offset: 0x27683, size: 0x8, addend: 0x0, symName: __ZNSt3__119__allocator_destroyB7v160006INS_9allocatorI9PredicateEENS_16reverse_iteratorINS4_IPS2_EEEES7_EEvRT_T0_T1_, symObjAddr: 0x6F88, symBinAddr: 0x10000C984, symSize: 0x70 }
  - { offsetInCU: 0xAEF9, offset: 0x276E9, size: 0x8, addend: 0x0, symName: __ZNSt3__1neB7v160006INS_16reverse_iteratorIP9PredicateEES4_EEbRKNS1_IT_EERKNS1_IT0_EE, symObjAddr: 0x7034, symBinAddr: 0x10000CA30, symSize: 0x60 }
  - { offsetInCU: 0xAF45, offset: 0x27735, size: 0x8, addend: 0x0, symName: __ZNSt3__112__to_addressB7v160006INS_16reverse_iteratorINS1_IP9PredicateEEEEvEENS_5decayIDTclsr19__to_address_helperIT_EE6__callclsr3stdE7declvalIRKS7_EEEEE4typeES9_, symObjAddr: 0x7094, symBinAddr: 0x10000CA90, symSize: 0x24 }
  - { offsetInCU: 0xAFA5, offset: 0x27795, size: 0x8, addend: 0x0, symName: __ZNSt3__1neB7v160006ERKNS_21__hash_const_iteratorIPNS_11__hash_nodeINS_17__hash_value_typeI9ItemFieldNS_6vectorI9PredicateNS_9allocatorIS5_EEEEEEPvEEEESF_, symObjAddr: 0x7840, symBinAddr: 0x10000D23C, symSize: 0x34 }
  - { offsetInCU: 0xAFE2, offset: 0x277D2, size: 0x8, addend: 0x0, symName: __ZNSt3__1eqB7v160006ERKNS_21__hash_const_iteratorIPNS_11__hash_nodeINS_17__hash_value_typeI9ItemFieldNS_6vectorI9PredicateNS_9allocatorIS5_EEEEEEPvEEEESF_, symObjAddr: 0x7874, symBinAddr: 0x10000D270, symSize: 0x30 }
  - { offsetInCU: 0xB086, offset: 0x27876, size: 0x8, addend: 0x0, symName: __ZNSt3__119__debug_db_insert_cB7v160006INS_6vectorI4ItemNS_9allocatorIS2_EEEEEEvPT_, symObjAddr: 0x7A24, symBinAddr: 0x10000D420, symSize: 0x10 }
  - { offsetInCU: 0xB0B7, offset: 0x278A7, size: 0x8, addend: 0x0, symName: __ZNSt3__118__debug_db_erase_cB7v160006INS_6vectorI4ItemNS_9allocatorIS2_EEEEEEvPT_, symObjAddr: 0x7D04, symBinAddr: 0x10000D700, symSize: 0x10 }
  - { offsetInCU: 0xB0E8, offset: 0x278D8, size: 0x8, addend: 0x0, symName: __ZNSt3__112__to_addressB7v160006I4ItemEEPT_S3_, symObjAddr: 0x7E20, symBinAddr: 0x10000D81C, symSize: 0x14 }
  - { offsetInCU: 0xB11E, offset: 0x2790E, size: 0x8, addend: 0x0, symName: __ZNSt3__119__allocate_at_leastB7v160006INS_9allocatorI4ItemEEEENS_19__allocation_resultINS_16allocator_traitsIT_E7pointerEEERS6_m, symObjAddr: 0x88D4, symBinAddr: 0x10000E2D0, symSize: 0x40 }
  - { offsetInCU: 0xB161, offset: 0x27951, size: 0x8, addend: 0x0, symName: __ZNSt3__142__uninitialized_allocator_move_if_noexceptB7v160006INS_9allocatorI4ItemEENS_16reverse_iteratorIPS2_EES6_S6_EET2_RT_T0_T1_S7_, symObjAddr: 0x8B60, symBinAddr: 0x10000E55C, symSize: 0x12C }
  - { offsetInCU: 0xB201, offset: 0x279F1, size: 0x8, addend: 0x0, symName: __ZNSt3__14swapB7v160006IP4ItemEENS_9enable_ifIXaasr21is_move_constructibleIT_EE5valuesr18is_move_assignableIS4_EE5valueEvE4typeERS4_S7_, symObjAddr: 0x8CD8, symBinAddr: 0x10000E6D4, symSize: 0x3C }
  - { offsetInCU: 0xB253, offset: 0x27A43, size: 0x8, addend: 0x0, symName: __ZNSt3__125__debug_db_invalidate_allB7v160006INS_6vectorI4ItemNS_9allocatorIS2_EEEEEEvPT_, symObjAddr: 0x8DDC, symBinAddr: 0x10000E7D8, symSize: 0x10 }
  - { offsetInCU: 0xB284, offset: 0x27A74, size: 0x8, addend: 0x0, symName: __ZNSt3__122__make_exception_guardB7v160006INS_29_AllocatorDestroyRangeReverseINS_9allocatorI4ItemEENS_16reverse_iteratorIPS3_EEEEEENS_28__exception_guard_exceptionsIT_EESA_, symObjAddr: 0x8DEC, symBinAddr: 0x10000E7E8, symSize: 0x4C }
  - { offsetInCU: 0xB2BA, offset: 0x27AAA, size: 0x8, addend: 0x0, symName: __ZNSt3__1neB7v160006IP4ItemS2_EEbRKNS_16reverse_iteratorIT_EERKNS3_IT0_EE, symObjAddr: 0x8E7C, symBinAddr: 0x10000E878, symSize: 0x48 }
  - { offsetInCU: 0xB306, offset: 0x27AF6, size: 0x8, addend: 0x0, symName: __ZNSt3__112__to_addressB7v160006INS_16reverse_iteratorIP4ItemEEvEENS_5decayIDTclsr19__to_address_helperIT_EE6__callclsr3stdE7declvalIRKS6_EEEEE4typeES8_, symObjAddr: 0x8EF8, symBinAddr: 0x10000E8F4, symSize: 0x24 }
  - { offsetInCU: 0xB366, offset: 0x27B56, size: 0x8, addend: 0x0, symName: __ZNSt3__119__allocator_destroyB7v160006INS_9allocatorI4ItemEENS_16reverse_iteratorINS4_IPS2_EEEES7_EEvRT_T0_T1_, symObjAddr: 0x91D8, symBinAddr: 0x10000EBD4, symSize: 0x70 }
  - { offsetInCU: 0xB3CC, offset: 0x27BBC, size: 0x8, addend: 0x0, symName: __ZNSt3__1neB7v160006INS_16reverse_iteratorIP4ItemEES4_EEbRKNS1_IT_EERKNS1_IT0_EE, symObjAddr: 0x9284, symBinAddr: 0x10000EC80, symSize: 0x60 }
  - { offsetInCU: 0xB418, offset: 0x27C08, size: 0x8, addend: 0x0, symName: __ZNSt3__112__to_addressB7v160006INS_16reverse_iteratorINS1_IP4ItemEEEEvEENS_5decayIDTclsr19__to_address_helperIT_EE6__callclsr3stdE7declvalIRKS7_EEEEE4typeES9_, symObjAddr: 0x92E4, symBinAddr: 0x10000ECE0, symSize: 0x24 }
  - { offsetInCU: 0xB478, offset: 0x27C68, size: 0x8, addend: 0x0, symName: __ZNSt3__120__throw_out_of_rangeB7v160006EPKc, symObjAddr: 0x974C, symBinAddr: 0x10000F148, symSize: 0x64 }
  - { offsetInCU: 0xB6FE, offset: 0x27EEE, size: 0x8, addend: 0x0, symName: __ZL8ITEM_MIN, symObjAddr: 0x641C8, symBinAddr: 0x100020168, symSize: 0x0 }
  - { offsetInCU: 0xB8C7, offset: 0x280B7, size: 0x8, addend: 0x0, symName: __ZL8ITEM_MAX, symObjAddr: 0x64210, symBinAddr: 0x1000201B0, symSize: 0x0 }
  - { offsetInCU: 0xC062, offset: 0x28852, size: 0x8, addend: 0x0, symName: __ZNKSt3__111__enum_hashI9ItemFieldLb1EEclB7v160006ES1_, symObjAddr: 0x4BB4, symBinAddr: 0x10000A658, symSize: 0x2C }
  - { offsetInCU: 0xC101, offset: 0x288F1, size: 0x8, addend: 0x0, symName: __ZNSt3__16vectorI9PredicateNS_9allocatorIS1_EEE26__swap_out_circular_bufferERNS_14__split_bufferIS1_RS3_EE, symObjAddr: 0x61E0, symBinAddr: 0x10000BC84, symSize: 0x118 }
  - { offsetInCU: 0xC31E, offset: 0x28B0E, size: 0x8, addend: 0x0, symName: __ZNSt3__16vectorI4ItemNS_9allocatorIS1_EEE26__swap_out_circular_bufferERNS_14__split_bufferIS1_RS3_EE, symObjAddr: 0x83F4, symBinAddr: 0x10000DDF0, symSize: 0x118 }
  - { offsetInCU: 0xE464, offset: 0x2AC54, size: 0x8, addend: 0x0, symName: __ZN10FilterPlanC2EP4Plan, symObjAddr: 0xC8, symBinAddr: 0x100007468, symSize: 0xD4 }
  - { offsetInCU: 0xE4B2, offset: 0x2ACA2, size: 0x8, addend: 0x0, symName: __ZNSt3__113unordered_mapI9ItemFieldNS_6vectorI9PredicateNS_9allocatorIS3_EEEENS_4hashIS1_EENS_8equal_toIS1_EENS4_INS_4pairIKS1_S6_EEEEEC1B7v160006Ev, symObjAddr: 0x19C, symBinAddr: 0x10000753C, symSize: 0x2C }
  - { offsetInCU: 0xE4DC, offset: 0x2ACCC, size: 0x8, addend: 0x0, symName: __ZNSt3__113unordered_mapI9ItemFieldNS_6vectorI9PredicateNS_9allocatorIS3_EEEENS_4hashIS1_EENS_8equal_toIS1_EENS4_INS_4pairIKS1_S6_EEEEED1B7v160006Ev, symObjAddr: 0x1C8, symBinAddr: 0x100007568, symSize: 0x2C }
  - { offsetInCU: 0xE506, offset: 0x2ACF6, size: 0x8, addend: 0x0, symName: __ZN10FilterPlanC1EP4Plan, symObjAddr: 0x1F4, symBinAddr: 0x100007594, symSize: 0x34 }
  - { offsetInCU: 0xE540, offset: 0x2AD30, size: 0x8, addend: 0x0, symName: __ZN10FilterPlanD2Ev, symObjAddr: 0x228, symBinAddr: 0x1000075C8, symSize: 0xB8 }
  - { offsetInCU: 0xE580, offset: 0x2AD70, size: 0x8, addend: 0x0, symName: __ZN10FilterPlanD1Ev, symObjAddr: 0x2EC, symBinAddr: 0x100007680, symSize: 0x2C }
  - { offsetInCU: 0xE5AC, offset: 0x2AD9C, size: 0x8, addend: 0x0, symName: __ZN10FilterPlanD0Ev, symObjAddr: 0x318, symBinAddr: 0x1000076AC, symSize: 0x30 }
  - { offsetInCU: 0xE5D8, offset: 0x2ADC8, size: 0x8, addend: 0x0, symName: __ZNK10FilterPlan4initEv, symObjAddr: 0x348, symBinAddr: 0x1000076DC, symSize: 0x94 }
  - { offsetInCU: 0xE710, offset: 0x2AF00, size: 0x8, addend: 0x0, symName: __ZN14FilterIteratorC1EPK10FilterPlan, symObjAddr: 0x3DC, symBinAddr: 0x100007770, symSize: 0x34 }
  - { offsetInCU: 0xE74A, offset: 0x2AF3A, size: 0x8, addend: 0x0, symName: __ZN10FilterPlan12SetPredicateE9ItemField13PredicateEnumNSt3__112basic_stringIcNS2_11char_traitsIcEENS2_9allocatorIcEEEE, symObjAddr: 0x410, symBinAddr: 0x1000077A4, symSize: 0x114 }
  - { offsetInCU: 0xE7C9, offset: 0x2AFB9, size: 0x8, addend: 0x0, symName: __ZN9PredicateC1E9ItemField13PredicateEnumNSt3__112basic_stringIcNS2_11char_traitsIcEENS2_9allocatorIcEEEE, symObjAddr: 0x524, symBinAddr: 0x1000078B8, symSize: 0x44 }
  - { offsetInCU: 0xE81D, offset: 0x2B00D, size: 0x8, addend: 0x0, symName: __ZNSt3__113unordered_mapI9ItemFieldNS_6vectorI9PredicateNS_9allocatorIS3_EEEENS_4hashIS1_EENS_8equal_toIS1_EENS4_INS_4pairIKS1_S6_EEEEEixERSC_, symObjAddr: 0x568, symBinAddr: 0x1000078FC, symSize: 0x80 }
  - { offsetInCU: 0xE854, offset: 0x2B044, size: 0x8, addend: 0x0, symName: __ZNSt3__16vectorI9PredicateNS_9allocatorIS1_EEE9push_backB7v160006ERKS1_, symObjAddr: 0x5E8, symBinAddr: 0x10000797C, symSize: 0x6C }
  - { offsetInCU: 0xE88C, offset: 0x2B07C, size: 0x8, addend: 0x0, symName: __ZN9PredicateD1Ev, symObjAddr: 0x654, symBinAddr: 0x1000079E8, symSize: 0x2C }
  - { offsetInCU: 0xE8B8, offset: 0x2B0A8, size: 0x8, addend: 0x0, symName: __ZNK10FilterPlan14ApplyPredicateER4Item, symObjAddr: 0x680, symBinAddr: 0x100007A14, symSize: 0x3CC }
  - { offsetInCU: 0xE9B6, offset: 0x2B1A6, size: 0x8, addend: 0x0, symName: __ZNKSt3__113unordered_mapI9ItemFieldNS_6vectorI9PredicateNS_9allocatorIS3_EEEENS_4hashIS1_EENS_8equal_toIS1_EENS4_INS_4pairIKS1_S6_EEEEE5emptyB7v160006Ev, symObjAddr: 0xA4C, symBinAddr: 0x100007DE0, symSize: 0x30 }
  - { offsetInCU: 0xE9DC, offset: 0x2B1CC, size: 0x8, addend: 0x0, symName: __ZNKSt3__16vectorI9ItemFieldNS_9allocatorIS1_EEE5beginB7v160006Ev, symObjAddr: 0xA7C, symBinAddr: 0x100007E10, symSize: 0x30 }
  - { offsetInCU: 0xEA04, offset: 0x2B1F4, size: 0x8, addend: 0x0, symName: __ZNKSt3__16vectorI9ItemFieldNS_9allocatorIS1_EEE3endB7v160006Ev, symObjAddr: 0xAAC, symBinAddr: 0x100007E40, symSize: 0x30 }
  - { offsetInCU: 0xEA2D, offset: 0x2B21D, size: 0x8, addend: 0x0, symName: __ZNKSt3__111__wrap_iterIPK9ItemFieldEdeB7v160006Ev, symObjAddr: 0xB10, symBinAddr: 0x100007EA4, symSize: 0x18 }
  - { offsetInCU: 0xEA52, offset: 0x2B242, size: 0x8, addend: 0x0, symName: __ZNKSt3__113unordered_mapI9ItemFieldNS_6vectorI9PredicateNS_9allocatorIS3_EEEENS_4hashIS1_EENS_8equal_toIS1_EENS4_INS_4pairIKS1_S6_EEEEE4findB7v160006ERSC_, symObjAddr: 0xB28, symBinAddr: 0x100007EBC, symSize: 0x40 }
  - { offsetInCU: 0xEA87, offset: 0x2B277, size: 0x8, addend: 0x0, symName: __ZNKSt3__113unordered_mapI9ItemFieldNS_6vectorI9PredicateNS_9allocatorIS3_EEEENS_4hashIS1_EENS_8equal_toIS1_EENS4_INS_4pairIKS1_S6_EEEEE3endB7v160006Ev, symObjAddr: 0xB98, symBinAddr: 0x100007F2C, symSize: 0x38 }
  - { offsetInCU: 0xEAAD, offset: 0x2B29D, size: 0x8, addend: 0x0, symName: __ZNKSt3__125__hash_map_const_iteratorINS_21__hash_const_iteratorIPNS_11__hash_nodeINS_17__hash_value_typeI9ItemFieldNS_6vectorI9PredicateNS_9allocatorIS6_EEEEEEPvEEEEEptB7v160006Ev, symObjAddr: 0xBD0, symBinAddr: 0x100007F64, symSize: 0x2C }
  - { offsetInCU: 0xEAD3, offset: 0x2B2C3, size: 0x8, addend: 0x0, symName: __ZNKSt3__16vectorI9PredicateNS_9allocatorIS1_EEE5beginB7v160006Ev, symObjAddr: 0xBFC, symBinAddr: 0x100007F90, symSize: 0x30 }
  - { offsetInCU: 0xEAFB, offset: 0x2B2EB, size: 0x8, addend: 0x0, symName: __ZNKSt3__16vectorI9PredicateNS_9allocatorIS1_EEE3endB7v160006Ev, symObjAddr: 0xC2C, symBinAddr: 0x100007FC0, symSize: 0x30 }
  - { offsetInCU: 0xEB24, offset: 0x2B314, size: 0x8, addend: 0x0, symName: __ZNKSt3__111__wrap_iterIPK9PredicateEdeB7v160006Ev, symObjAddr: 0xC90, symBinAddr: 0x100008024, symSize: 0x18 }
  - { offsetInCU: 0xEB4A, offset: 0x2B33A, size: 0x8, addend: 0x0, symName: __ZNSt3__111__wrap_iterIPK9PredicateEppB7v160006Ev, symObjAddr: 0xCA8, symBinAddr: 0x10000803C, symSize: 0x20 }
  - { offsetInCU: 0xEB70, offset: 0x2B360, size: 0x8, addend: 0x0, symName: __ZNSt3__111__wrap_iterIPK9ItemFieldEppB7v160006Ev, symObjAddr: 0xCC8, symBinAddr: 0x10000805C, symSize: 0x20 }
  - { offsetInCU: 0xEB96, offset: 0x2B386, size: 0x8, addend: 0x0, symName: __ZN14FilterIteratorC2EPK10FilterPlan, symObjAddr: 0xCE8, symBinAddr: 0x10000807C, symSize: 0x120 }
  - { offsetInCU: 0xEBED, offset: 0x2B3DD, size: 0x8, addend: 0x0, symName: __ZNSt3__16vectorI4ItemNS_9allocatorIS1_EEEC1B7v160006Ev, symObjAddr: 0xE08, symBinAddr: 0x10000819C, symSize: 0x2C }
  - { offsetInCU: 0xEC16, offset: 0x2B406, size: 0x8, addend: 0x0, symName: __ZNSt3__16vectorI4ItemNS_9allocatorIS1_EEE6resizeEm, symObjAddr: 0xE34, symBinAddr: 0x1000081C8, symSize: 0x9C }
  - { offsetInCU: 0xEC5D, offset: 0x2B44D, size: 0x8, addend: 0x0, symName: __ZNSt3__16vectorI4ItemNS_9allocatorIS1_EEED1B7v160006Ev, symObjAddr: 0xED0, symBinAddr: 0x100008264, symSize: 0x2C }
  - { offsetInCU: 0xEC87, offset: 0x2B477, size: 0x8, addend: 0x0, symName: __ZN14FilterIteratorD2Ev, symObjAddr: 0xEFC, symBinAddr: 0x100008290, symSize: 0x114 }
  - { offsetInCU: 0xECC7, offset: 0x2B4B7, size: 0x8, addend: 0x0, symName: __ZN14FilterIteratorD1Ev, symObjAddr: 0x1010, symBinAddr: 0x1000083A4, symSize: 0x2C }
  - { offsetInCU: 0xECF3, offset: 0x2B4E3, size: 0x8, addend: 0x0, symName: __ZN14FilterIteratorD0Ev, symObjAddr: 0x103C, symBinAddr: 0x1000083D0, symSize: 0x30 }
  - { offsetInCU: 0xED1F, offset: 0x2B50F, size: 0x8, addend: 0x0, symName: __ZN14FilterIterator4nextEv, symObjAddr: 0x106C, symBinAddr: 0x100008400, symSize: 0x240 }
  - { offsetInCU: 0xEDA4, offset: 0x2B594, size: 0x8, addend: 0x0, symName: __ZN14FilterIterator14ApplyConditionEv, symObjAddr: 0x12AC, symBinAddr: 0x100008640, symSize: 0xA0 }
  - { offsetInCU: 0xEE04, offset: 0x2B5F4, size: 0x8, addend: 0x0, symName: __ZNSt3__16vectorI4ItemNS_9allocatorIS1_EEE2atEm, symObjAddr: 0x134C, symBinAddr: 0x1000086E0, symSize: 0x68 }
  - { offsetInCU: 0xEE3C, offset: 0x2B62C, size: 0x8, addend: 0x0, symName: __ZNKSt3__16vectorI4ItemNS_9allocatorIS1_EEE4sizeB7v160006Ev, symObjAddr: 0x13B4, symBinAddr: 0x100008748, symSize: 0x28 }
  - { offsetInCU: 0xEE62, offset: 0x2B652, size: 0x8, addend: 0x0, symName: __ZNSt3__16vectorI4ItemNS_9allocatorIS1_EEEixB7v160006Em, symObjAddr: 0x13DC, symBinAddr: 0x100008770, symSize: 0x2C }
  - { offsetInCU: 0xEE99, offset: 0x2B689, size: 0x8, addend: 0x0, symName: __ZN4ItemaSERKS_, symObjAddr: 0x1408, symBinAddr: 0x10000879C, symSize: 0x84 }
  - { offsetInCU: 0xEEE6, offset: 0x2B6D6, size: 0x8, addend: 0x0, symName: __ZN14FilterIterator10GetRecordsEPPNSt3__16vectorI4ItemNS0_9allocatorIS2_EEEEPPj, symObjAddr: 0x148C, symBinAddr: 0x100008820, symSize: 0x38 }
  - { offsetInCU: 0xEF2A, offset: 0x2B71A, size: 0x8, addend: 0x0, symName: __ZN9PredicateC2E9ItemField13PredicateEnumNSt3__112basic_stringIcNS2_11char_traitsIcEENS2_9allocatorIcEEEE, symObjAddr: 0x1528, symBinAddr: 0x100008858, symSize: 0x58 }
  - { offsetInCU: 0xEF7F, offset: 0x2B76F, size: 0x8, addend: 0x0, symName: __ZN9PredicateD2Ev, symObjAddr: 0x1580, symBinAddr: 0x1000088B0, symSize: 0x30 }
  - { offsetInCU: 0xEFAB, offset: 0x2B79B, size: 0x8, addend: 0x0, symName: __ZNKSt3__111__wrap_iterIPK9ItemFieldE4baseB7v160006Ev, symObjAddr: 0x15F8, symBinAddr: 0x100008928, symSize: 0x18 }
  - { offsetInCU: 0xEFD1, offset: 0x2B7C1, size: 0x8, addend: 0x0, symName: __ZNKSt3__111__wrap_iterIPK9PredicateE4baseB7v160006Ev, symObjAddr: 0x1658, symBinAddr: 0x100008988, symSize: 0x18 }
  - { offsetInCU: 0xF01E, offset: 0x2B80E, size: 0x8, addend: 0x0, symName: __ZNSt3__113unordered_mapI9ItemFieldNS_6vectorI9PredicateNS_9allocatorIS3_EEEENS_4hashIS1_EENS_8equal_toIS1_EENS4_INS_4pairIKS1_S6_EEEEEC2B7v160006Ev, symObjAddr: 0x2EFC, symBinAddr: 0x1000089A0, symSize: 0x3C }
  - { offsetInCU: 0xF048, offset: 0x2B838, size: 0x8, addend: 0x0, symName: __ZNSt3__112__hash_tableINS_17__hash_value_typeI9ItemFieldNS_6vectorI9PredicateNS_9allocatorIS4_EEEEEENS_22__unordered_map_hasherIS2_S8_NS_4hashIS2_EENS_8equal_toIS2_EELb1EEENS_21__unordered_map_equalIS2_S8_SD_SB_Lb1EEENS5_IS8_EEEC1Ev, symObjAddr: 0x2F38, symBinAddr: 0x1000089DC, symSize: 0x2C }
  - { offsetInCU: 0xF074, offset: 0x2B864, size: 0x8, addend: 0x0, symName: __ZNSt3__112__hash_tableINS_17__hash_value_typeI9ItemFieldNS_6vectorI9PredicateNS_9allocatorIS4_EEEEEENS_22__unordered_map_hasherIS2_S8_NS_4hashIS2_EENS_8equal_toIS2_EELb1EEENS_21__unordered_map_equalIS2_S8_SD_SB_Lb1EEENS5_IS8_EEEC2Ev, symObjAddr: 0x2F74, symBinAddr: 0x100008A18, symSize: 0x7C }
  - { offsetInCU: 0xF0A0, offset: 0x2B890, size: 0x8, addend: 0x0, symName: __ZNSt3__110unique_ptrIA_PNS_16__hash_node_baseIPNS_11__hash_nodeINS_17__hash_value_typeI9ItemFieldNS_6vectorI9PredicateNS_9allocatorIS6_EEEEEEPvEEEENS_25__bucket_list_deallocatorINS7_ISF_EEEEEC1B7v160006ILb1EvEEv, symObjAddr: 0x2FF0, symBinAddr: 0x100008A94, symSize: 0x2C }
  - { offsetInCU: 0xF0D5, offset: 0x2B8C5, size: 0x8, addend: 0x0, symName: __ZNSt3__117__compressed_pairINS_16__hash_node_baseIPNS_11__hash_nodeINS_17__hash_value_typeI9ItemFieldNS_6vectorI9PredicateNS_9allocatorIS6_EEEEEEPvEEEENS7_ISC_EEEC1B7v160006ILb1EvEEv, symObjAddr: 0x301C, symBinAddr: 0x100008AC0, symSize: 0x2C }
  - { offsetInCU: 0xF110, offset: 0x2B900, size: 0x8, addend: 0x0, symName: __ZNSt3__117__compressed_pairImNS_22__unordered_map_hasherI9ItemFieldNS_17__hash_value_typeIS2_NS_6vectorI9PredicateNS_9allocatorIS5_EEEEEENS_4hashIS2_EENS_8equal_toIS2_EELb1EEEEC1B7v160006IiNS_18__default_init_tagEEEOT_OT0_, symObjAddr: 0x3048, symBinAddr: 0x100008AEC, symSize: 0x3C }
  - { offsetInCU: 0xF16E, offset: 0x2B95E, size: 0x8, addend: 0x0, symName: __ZNSt3__117__compressed_pairIfNS_21__unordered_map_equalI9ItemFieldNS_17__hash_value_typeIS2_NS_6vectorI9PredicateNS_9allocatorIS5_EEEEEENS_8equal_toIS2_EENS_4hashIS2_EELb1EEEEC1B7v160006IfNS_18__default_init_tagEEEOT_OT0_, symObjAddr: 0x3084, symBinAddr: 0x100008B28, symSize: 0x3C }
  - { offsetInCU: 0xF1C6, offset: 0x2B9B6, size: 0x8, addend: 0x0, symName: __ZNSt3__110unique_ptrIA_PNS_16__hash_node_baseIPNS_11__hash_nodeINS_17__hash_value_typeI9ItemFieldNS_6vectorI9PredicateNS_9allocatorIS6_EEEEEEPvEEEENS_25__bucket_list_deallocatorINS7_ISF_EEEEEC2B7v160006ILb1EvEEv, symObjAddr: 0x30C0, symBinAddr: 0x100008B64, symSize: 0x3C }
  - { offsetInCU: 0xF201, offset: 0x2B9F1, size: 0x8, addend: 0x0, symName: __ZNSt3__117__compressed_pairIPPNS_16__hash_node_baseIPNS_11__hash_nodeINS_17__hash_value_typeI9ItemFieldNS_6vectorI9PredicateNS_9allocatorIS6_EEEEEEPvEEEENS_25__bucket_list_deallocatorINS7_ISF_EEEEEC1B7v160006INS_16__value_init_tagESM_EEOT_OT0_, symObjAddr: 0x30FC, symBinAddr: 0x100008BA0, symSize: 0x3C }
  - { offsetInCU: 0xF259, offset: 0x2BA49, size: 0x8, addend: 0x0, symName: __ZNSt3__117__compressed_pairIPPNS_16__hash_node_baseIPNS_11__hash_nodeINS_17__hash_value_typeI9ItemFieldNS_6vectorI9PredicateNS_9allocatorIS6_EEEEEEPvEEEENS_25__bucket_list_deallocatorINS7_ISF_EEEEEC2B7v160006INS_16__value_init_tagESM_EEOT_OT0_, symObjAddr: 0x3138, symBinAddr: 0x100008BDC, symSize: 0x40 }
  - { offsetInCU: 0xF2B1, offset: 0x2BAA1, size: 0x8, addend: 0x0, symName: __ZNSt3__122__compressed_pair_elemIPPNS_16__hash_node_baseIPNS_11__hash_nodeINS_17__hash_value_typeI9ItemFieldNS_6vectorI9PredicateNS_9allocatorIS6_EEEEEEPvEEEELi0ELb0EEC2B7v160006ENS_16__value_init_tagE, symObjAddr: 0x3178, symBinAddr: 0x100008C1C, symSize: 0x18 }
  - { offsetInCU: 0xF2E6, offset: 0x2BAD6, size: 0x8, addend: 0x0, symName: __ZNSt3__122__compressed_pair_elemINS_25__bucket_list_deallocatorINS_9allocatorIPNS_16__hash_node_baseIPNS_11__hash_nodeINS_17__hash_value_typeI9ItemFieldNS_6vectorI9PredicateNS2_IS8_EEEEEEPvEEEEEEEELi1ELb0EEC2B7v160006ENS_16__value_init_tagE, symObjAddr: 0x3190, symBinAddr: 0x100008C34, symSize: 0x2C }
  - { offsetInCU: 0xF31B, offset: 0x2BB0B, size: 0x8, addend: 0x0, symName: __ZNSt3__125__bucket_list_deallocatorINS_9allocatorIPNS_16__hash_node_baseIPNS_11__hash_nodeINS_17__hash_value_typeI9ItemFieldNS_6vectorI9PredicateNS1_IS7_EEEEEEPvEEEEEEEC1B7v160006Ev, symObjAddr: 0x31BC, symBinAddr: 0x100008C60, symSize: 0x2C }
  - { offsetInCU: 0xF345, offset: 0x2BB35, size: 0x8, addend: 0x0, symName: __ZNSt3__125__bucket_list_deallocatorINS_9allocatorIPNS_16__hash_node_baseIPNS_11__hash_nodeINS_17__hash_value_typeI9ItemFieldNS_6vectorI9PredicateNS1_IS7_EEEEEEPvEEEEEEEC2B7v160006Ev, symObjAddr: 0x31E8, symBinAddr: 0x100008C8C, symSize: 0x40 }
  - { offsetInCU: 0xF36F, offset: 0x2BB5F, size: 0x8, addend: 0x0, symName: __ZNSt3__117__compressed_pairImNS_9allocatorIPNS_16__hash_node_baseIPNS_11__hash_nodeINS_17__hash_value_typeI9ItemFieldNS_6vectorI9PredicateNS1_IS7_EEEEEEPvEEEEEEEC1B7v160006IiNS_18__default_init_tagEEEOT_OT0_, symObjAddr: 0x3228, symBinAddr: 0x100008CCC, symSize: 0x3C }
  - { offsetInCU: 0xF3C7, offset: 0x2BBB7, size: 0x8, addend: 0x0, symName: __ZNSt3__117__compressed_pairImNS_9allocatorIPNS_16__hash_node_baseIPNS_11__hash_nodeINS_17__hash_value_typeI9ItemFieldNS_6vectorI9PredicateNS1_IS7_EEEEEEPvEEEEEEEC2B7v160006IiNS_18__default_init_tagEEEOT_OT0_, symObjAddr: 0x3264, symBinAddr: 0x100008D08, symSize: 0x40 }
  - { offsetInCU: 0xF41F, offset: 0x2BC0F, size: 0x8, addend: 0x0, symName: __ZNSt3__122__compressed_pair_elemImLi0ELb0EEC2B7v160006IivEEOT_, symObjAddr: 0x32A4, symBinAddr: 0x100008D48, symSize: 0x24 }
  - { offsetInCU: 0xF461, offset: 0x2BC51, size: 0x8, addend: 0x0, symName: __ZNSt3__122__compressed_pair_elemINS_9allocatorIPNS_16__hash_node_baseIPNS_11__hash_nodeINS_17__hash_value_typeI9ItemFieldNS_6vectorI9PredicateNS1_IS7_EEEEEEPvEEEEEELi1ELb1EEC2B7v160006ENS_18__default_init_tagE, symObjAddr: 0x32C8, symBinAddr: 0x100008D6C, symSize: 0x2C }
  - { offsetInCU: 0xF496, offset: 0x2BC86, size: 0x8, addend: 0x0, symName: __ZNSt3__19allocatorIPNS_16__hash_node_baseIPNS_11__hash_nodeINS_17__hash_value_typeI9ItemFieldNS_6vectorI9PredicateNS0_IS6_EEEEEEPvEEEEEC2B7v160006Ev, symObjAddr: 0x32F4, symBinAddr: 0x100008D98, symSize: 0x2C }
  - { offsetInCU: 0xF4C0, offset: 0x2BCB0, size: 0x8, addend: 0x0, symName: __ZNSt3__116__non_trivial_ifILb1ENS_9allocatorIPNS_16__hash_node_baseIPNS_11__hash_nodeINS_17__hash_value_typeI9ItemFieldNS_6vectorI9PredicateNS1_IS7_EEEEEEPvEEEEEEEC2B7v160006Ev, symObjAddr: 0x3320, symBinAddr: 0x100008DC4, symSize: 0x14 }
  - { offsetInCU: 0xF4EA, offset: 0x2BCDA, size: 0x8, addend: 0x0, symName: __ZNSt3__117__compressed_pairINS_16__hash_node_baseIPNS_11__hash_nodeINS_17__hash_value_typeI9ItemFieldNS_6vectorI9PredicateNS_9allocatorIS6_EEEEEEPvEEEENS7_ISC_EEEC2B7v160006ILb1EvEEv, symObjAddr: 0x3334, symBinAddr: 0x100008DD8, symSize: 0x34 }
  - { offsetInCU: 0xF51F, offset: 0x2BD0F, size: 0x8, addend: 0x0, symName: __ZNSt3__122__compressed_pair_elemINS_16__hash_node_baseIPNS_11__hash_nodeINS_17__hash_value_typeI9ItemFieldNS_6vectorI9PredicateNS_9allocatorIS6_EEEEEEPvEEEELi0ELb0EEC2B7v160006ENS_16__value_init_tagE, symObjAddr: 0x3368, symBinAddr: 0x100008E0C, symSize: 0x2C }
  - { offsetInCU: 0xF554, offset: 0x2BD44, size: 0x8, addend: 0x0, symName: __ZNSt3__122__compressed_pair_elemINS_9allocatorINS_11__hash_nodeINS_17__hash_value_typeI9ItemFieldNS_6vectorI9PredicateNS1_IS6_EEEEEEPvEEEELi1ELb1EEC2B7v160006ENS_16__value_init_tagE, symObjAddr: 0x3394, symBinAddr: 0x100008E38, symSize: 0x2C }
  - { offsetInCU: 0xF589, offset: 0x2BD79, size: 0x8, addend: 0x0, symName: __ZNSt3__116__hash_node_baseIPNS_11__hash_nodeINS_17__hash_value_typeI9ItemFieldNS_6vectorI9PredicateNS_9allocatorIS5_EEEEEEPvEEEC1B7v160006Ev, symObjAddr: 0x33C0, symBinAddr: 0x100008E64, symSize: 0x2C }
  - { offsetInCU: 0xF5B3, offset: 0x2BDA3, size: 0x8, addend: 0x0, symName: __ZNSt3__116__hash_node_baseIPNS_11__hash_nodeINS_17__hash_value_typeI9ItemFieldNS_6vectorI9PredicateNS_9allocatorIS5_EEEEEEPvEEEC2B7v160006Ev, symObjAddr: 0x33EC, symBinAddr: 0x100008E90, symSize: 0x18 }
  - { offsetInCU: 0xF5DD, offset: 0x2BDCD, size: 0x8, addend: 0x0, symName: __ZNSt3__19allocatorINS_11__hash_nodeINS_17__hash_value_typeI9ItemFieldNS_6vectorI9PredicateNS0_IS5_EEEEEEPvEEEC2B7v160006Ev, symObjAddr: 0x3404, symBinAddr: 0x100008EA8, symSize: 0x2C }
  - { offsetInCU: 0xF607, offset: 0x2BDF7, size: 0x8, addend: 0x0, symName: __ZNSt3__116__non_trivial_ifILb1ENS_9allocatorINS_11__hash_nodeINS_17__hash_value_typeI9ItemFieldNS_6vectorI9PredicateNS1_IS6_EEEEEEPvEEEEEC2B7v160006Ev, symObjAddr: 0x3430, symBinAddr: 0x100008ED4, symSize: 0x14 }
  - { offsetInCU: 0xF631, offset: 0x2BE21, size: 0x8, addend: 0x0, symName: __ZNSt3__117__compressed_pairImNS_22__unordered_map_hasherI9ItemFieldNS_17__hash_value_typeIS2_NS_6vectorI9PredicateNS_9allocatorIS5_EEEEEENS_4hashIS2_EENS_8equal_toIS2_EELb1EEEEC2B7v160006IiNS_18__default_init_tagEEEOT_OT0_, symObjAddr: 0x3444, symBinAddr: 0x100008EE8, symSize: 0x40 }
  - { offsetInCU: 0xF689, offset: 0x2BE79, size: 0x8, addend: 0x0, symName: __ZNSt3__122__compressed_pair_elemINS_22__unordered_map_hasherI9ItemFieldNS_17__hash_value_typeIS2_NS_6vectorI9PredicateNS_9allocatorIS5_EEEEEENS_4hashIS2_EENS_8equal_toIS2_EELb1EEELi1ELb1EEC2B7v160006ENS_18__default_init_tagE, symObjAddr: 0x3484, symBinAddr: 0x100008F28, symSize: 0x2C }
  - { offsetInCU: 0xF6BE, offset: 0x2BEAE, size: 0x8, addend: 0x0, symName: __ZNSt3__122__unordered_map_hasherI9ItemFieldNS_17__hash_value_typeIS1_NS_6vectorI9PredicateNS_9allocatorIS4_EEEEEENS_4hashIS1_EENS_8equal_toIS1_EELb1EEC2B7v160006Ev, symObjAddr: 0x34B0, symBinAddr: 0x100008F54, symSize: 0x14 }
  - { offsetInCU: 0xF6E8, offset: 0x2BED8, size: 0x8, addend: 0x0, symName: __ZNSt3__117__compressed_pairIfNS_21__unordered_map_equalI9ItemFieldNS_17__hash_value_typeIS2_NS_6vectorI9PredicateNS_9allocatorIS5_EEEEEENS_8equal_toIS2_EENS_4hashIS2_EELb1EEEEC2B7v160006IfNS_18__default_init_tagEEEOT_OT0_, symObjAddr: 0x34C4, symBinAddr: 0x100008F68, symSize: 0x40 }
  - { offsetInCU: 0xF740, offset: 0x2BF30, size: 0x8, addend: 0x0, symName: __ZNSt3__122__compressed_pair_elemIfLi0ELb0EEC2B7v160006IfvEEOT_, symObjAddr: 0x3504, symBinAddr: 0x100008FA8, symSize: 0x24 }
  - { offsetInCU: 0xF782, offset: 0x2BF72, size: 0x8, addend: 0x0, symName: __ZNSt3__122__compressed_pair_elemINS_21__unordered_map_equalI9ItemFieldNS_17__hash_value_typeIS2_NS_6vectorI9PredicateNS_9allocatorIS5_EEEEEENS_8equal_toIS2_EENS_4hashIS2_EELb1EEELi1ELb1EEC2B7v160006ENS_18__default_init_tagE, symObjAddr: 0x3528, symBinAddr: 0x100008FCC, symSize: 0x2C }
  - { offsetInCU: 0xF7B7, offset: 0x2BFA7, size: 0x8, addend: 0x0, symName: __ZNSt3__121__unordered_map_equalI9ItemFieldNS_17__hash_value_typeIS1_NS_6vectorI9PredicateNS_9allocatorIS4_EEEEEENS_8equal_toIS1_EENS_4hashIS1_EELb1EEC2B7v160006Ev, symObjAddr: 0x3554, symBinAddr: 0x100008FF8, symSize: 0x14 }
  - { offsetInCU: 0xF7E1, offset: 0x2BFD1, size: 0x8, addend: 0x0, symName: __ZNSt3__113unordered_mapI9ItemFieldNS_6vectorI9PredicateNS_9allocatorIS3_EEEENS_4hashIS1_EENS_8equal_toIS1_EENS4_INS_4pairIKS1_S6_EEEEED2B7v160006Ev, symObjAddr: 0x3568, symBinAddr: 0x10000900C, symSize: 0x2C }
  - { offsetInCU: 0xF80B, offset: 0x2BFFB, size: 0x8, addend: 0x0, symName: __ZNSt3__112__hash_tableINS_17__hash_value_typeI9ItemFieldNS_6vectorI9PredicateNS_9allocatorIS4_EEEEEENS_22__unordered_map_hasherIS2_S8_NS_4hashIS2_EENS_8equal_toIS2_EELb1EEENS_21__unordered_map_equalIS2_S8_SD_SB_Lb1EEENS5_IS8_EEED1Ev, symObjAddr: 0x3594, symBinAddr: 0x100009038, symSize: 0x2C }
  - { offsetInCU: 0xF837, offset: 0x2C027, size: 0x8, addend: 0x0, symName: __ZNSt3__112__hash_tableINS_17__hash_value_typeI9ItemFieldNS_6vectorI9PredicateNS_9allocatorIS4_EEEEEENS_22__unordered_map_hasherIS2_S8_NS_4hashIS2_EENS_8equal_toIS2_EELb1EEENS_21__unordered_map_equalIS2_S8_SD_SB_Lb1EEENS5_IS8_EEED2Ev, symObjAddr: 0x35C0, symBinAddr: 0x100009064, symSize: 0x58 }
  - { offsetInCU: 0xF862, offset: 0x2C052, size: 0x8, addend: 0x0, symName: __ZNSt3__112__hash_tableINS_17__hash_value_typeI9ItemFieldNS_6vectorI9PredicateNS_9allocatorIS4_EEEEEENS_22__unordered_map_hasherIS2_S8_NS_4hashIS2_EENS_8equal_toIS2_EELb1EEENS_21__unordered_map_equalIS2_S8_SD_SB_Lb1EEENS5_IS8_EEE17__deallocate_nodeEPNS_16__hash_node_baseIPNS_11__hash_nodeIS8_PvEEEE, symObjAddr: 0x3618, symBinAddr: 0x1000090BC, symSize: 0xA8 }
  - { offsetInCU: 0xF8CC, offset: 0x2C0BC, size: 0x8, addend: 0x0, symName: __ZNSt3__117__compressed_pairINS_16__hash_node_baseIPNS_11__hash_nodeINS_17__hash_value_typeI9ItemFieldNS_6vectorI9PredicateNS_9allocatorIS6_EEEEEEPvEEEENS7_ISC_EEE5firstB7v160006Ev, symObjAddr: 0x36C0, symBinAddr: 0x100009164, symSize: 0x24 }
  - { offsetInCU: 0xF8F3, offset: 0x2C0E3, size: 0x8, addend: 0x0, symName: __ZNSt3__110unique_ptrIA_PNS_16__hash_node_baseIPNS_11__hash_nodeINS_17__hash_value_typeI9ItemFieldNS_6vectorI9PredicateNS_9allocatorIS6_EEEEEEPvEEEENS_25__bucket_list_deallocatorINS7_ISF_EEEEED1B7v160006Ev, symObjAddr: 0x36F4, symBinAddr: 0x100009198, symSize: 0x2C }
  - { offsetInCU: 0xF91C, offset: 0x2C10C, size: 0x8, addend: 0x0, symName: __ZNSt3__112__hash_tableINS_17__hash_value_typeI9ItemFieldNS_6vectorI9PredicateNS_9allocatorIS4_EEEEEENS_22__unordered_map_hasherIS2_S8_NS_4hashIS2_EENS_8equal_toIS2_EELb1EEENS_21__unordered_map_equalIS2_S8_SD_SB_Lb1EEENS5_IS8_EEE12__node_allocB7v160006Ev, symObjAddr: 0x3720, symBinAddr: 0x1000091C4, symSize: 0x28 }
  - { offsetInCU: 0xF942, offset: 0x2C132, size: 0x8, addend: 0x0, symName: __ZNSt3__116__hash_node_baseIPNS_11__hash_nodeINS_17__hash_value_typeI9ItemFieldNS_6vectorI9PredicateNS_9allocatorIS5_EEEEEEPvEEE8__upcastB7v160006Ev, symObjAddr: 0x3748, symBinAddr: 0x1000091EC, symSize: 0x24 }
  - { offsetInCU: 0xF969, offset: 0x2C159, size: 0x8, addend: 0x0, symName: __ZNSt3__116allocator_traitsINS_9allocatorINS_11__hash_nodeINS_17__hash_value_typeI9ItemFieldNS_6vectorI9PredicateNS1_IS6_EEEEEEPvEEEEE7destroyB7v160006INS_4pairIKS4_S8_EEvvEEvRSC_PT_, symObjAddr: 0x376C, symBinAddr: 0x100009210, symSize: 0x28 }
  - { offsetInCU: 0xF9A4, offset: 0x2C194, size: 0x8, addend: 0x0, symName: __ZNSt3__122__hash_key_value_typesINS_17__hash_value_typeI9ItemFieldNS_6vectorI9PredicateNS_9allocatorIS4_EEEEEEE9__get_ptrB7v160006ERS8_, symObjAddr: 0x3794, symBinAddr: 0x100009238, symSize: 0x24 }
  - { offsetInCU: 0xF9C7, offset: 0x2C1B7, size: 0x8, addend: 0x0, symName: __ZNSt3__116allocator_traitsINS_9allocatorINS_11__hash_nodeINS_17__hash_value_typeI9ItemFieldNS_6vectorI9PredicateNS1_IS6_EEEEEEPvEEEEE10deallocateB7v160006ERSC_PSB_m, symObjAddr: 0x37B8, symBinAddr: 0x10000925C, symSize: 0x34 }
  - { offsetInCU: 0xFA08, offset: 0x2C1F8, size: 0x8, addend: 0x0, symName: __ZNSt3__117__compressed_pairINS_16__hash_node_baseIPNS_11__hash_nodeINS_17__hash_value_typeI9ItemFieldNS_6vectorI9PredicateNS_9allocatorIS6_EEEEEEPvEEEENS7_ISC_EEE6secondB7v160006Ev, symObjAddr: 0x37EC, symBinAddr: 0x100009290, symSize: 0x24 }
  - { offsetInCU: 0xFA2F, offset: 0x2C21F, size: 0x8, addend: 0x0, symName: __ZNSt3__122__compressed_pair_elemINS_9allocatorINS_11__hash_nodeINS_17__hash_value_typeI9ItemFieldNS_6vectorI9PredicateNS1_IS6_EEEEEEPvEEEELi1ELb1EE5__getB7v160006Ev, symObjAddr: 0x3810, symBinAddr: 0x1000092B4, symSize: 0x14 }
  - { offsetInCU: 0xFA55, offset: 0x2C245, size: 0x8, addend: 0x0, symName: __ZNSt3__114pointer_traitsIPNS_16__hash_node_baseIPNS_11__hash_nodeINS_17__hash_value_typeI9ItemFieldNS_6vectorI9PredicateNS_9allocatorIS6_EEEEEEPvEEEEE10pointer_toB7v160006ERSE_, symObjAddr: 0x3824, symBinAddr: 0x1000092C8, symSize: 0x14 }
  - { offsetInCU: 0xFA78, offset: 0x2C268, size: 0x8, addend: 0x0, symName: __ZNSt3__14pairIK9ItemFieldNS_6vectorI9PredicateNS_9allocatorIS4_EEEEED1Ev, symObjAddr: 0x3838, symBinAddr: 0x1000092DC, symSize: 0x2C }
  - { offsetInCU: 0xFAA4, offset: 0x2C294, size: 0x8, addend: 0x0, symName: __ZNSt3__14pairIK9ItemFieldNS_6vectorI9PredicateNS_9allocatorIS4_EEEEED2Ev, symObjAddr: 0x3864, symBinAddr: 0x100009308, symSize: 0x30 }
  - { offsetInCU: 0xFAD0, offset: 0x2C2C0, size: 0x8, addend: 0x0, symName: __ZNSt3__16vectorI9PredicateNS_9allocatorIS1_EEED1B7v160006Ev, symObjAddr: 0x3894, symBinAddr: 0x100009338, symSize: 0x2C }
  - { offsetInCU: 0xFAFA, offset: 0x2C2EA, size: 0x8, addend: 0x0, symName: __ZNSt3__16vectorI9PredicateNS_9allocatorIS1_EEED2B7v160006Ev, symObjAddr: 0x38C0, symBinAddr: 0x100009364, symSize: 0x44 }
  - { offsetInCU: 0xFB24, offset: 0x2C314, size: 0x8, addend: 0x0, symName: __ZNSt3__16vectorI9PredicateNS_9allocatorIS1_EEE16__destroy_vectorC1ERS4_, symObjAddr: 0x3904, symBinAddr: 0x1000093A8, symSize: 0x34 }
  - { offsetInCU: 0xFB5C, offset: 0x2C34C, size: 0x8, addend: 0x0, symName: __ZNSt3__16vectorI9PredicateNS_9allocatorIS1_EEE16__destroy_vectorclB7v160006Ev, symObjAddr: 0x3938, symBinAddr: 0x1000093DC, symSize: 0x9C }
  - { offsetInCU: 0xFB83, offset: 0x2C373, size: 0x8, addend: 0x0, symName: __ZNSt3__16vectorI9PredicateNS_9allocatorIS1_EEE16__destroy_vectorC2ERS4_, symObjAddr: 0x39D4, symBinAddr: 0x100009478, symSize: 0x20 }
  - { offsetInCU: 0xFBBB, offset: 0x2C3AB, size: 0x8, addend: 0x0, symName: __ZNKSt3__16vectorI9PredicateNS_9allocatorIS1_EEE17__annotate_deleteB7v160006Ev, symObjAddr: 0x39F4, symBinAddr: 0x100009498, symSize: 0xB8 }
  - { offsetInCU: 0xFBE1, offset: 0x2C3D1, size: 0x8, addend: 0x0, symName: __ZNSt3__16vectorI9PredicateNS_9allocatorIS1_EEE7__clearB7v160006Ev, symObjAddr: 0x3ABC, symBinAddr: 0x100009560, symSize: 0x28 }
  - { offsetInCU: 0xFC08, offset: 0x2C3F8, size: 0x8, addend: 0x0, symName: __ZNSt3__116allocator_traitsINS_9allocatorI9PredicateEEE10deallocateB7v160006ERS3_PS2_m, symObjAddr: 0x3AE4, symBinAddr: 0x100009588, symSize: 0x34 }
  - { offsetInCU: 0xFC49, offset: 0x2C439, size: 0x8, addend: 0x0, symName: __ZNSt3__16vectorI9PredicateNS_9allocatorIS1_EEE7__allocB7v160006Ev, symObjAddr: 0x3B18, symBinAddr: 0x1000095BC, symSize: 0x28 }
  - { offsetInCU: 0xFC6F, offset: 0x2C45F, size: 0x8, addend: 0x0, symName: __ZNKSt3__16vectorI9PredicateNS_9allocatorIS1_EEE8capacityB7v160006Ev, symObjAddr: 0x3B40, symBinAddr: 0x1000095E4, symSize: 0x40 }
  - { offsetInCU: 0xFC96, offset: 0x2C486, size: 0x8, addend: 0x0, symName: __ZNKSt3__16vectorI9PredicateNS_9allocatorIS1_EEE31__annotate_contiguous_containerB7v160006EPKvS6_S6_S6_, symObjAddr: 0x3B80, symBinAddr: 0x100009624, symSize: 0x20 }
  - { offsetInCU: 0xFCEB, offset: 0x2C4DB, size: 0x8, addend: 0x0, symName: __ZNKSt3__16vectorI9PredicateNS_9allocatorIS1_EEE4dataB7v160006Ev, symObjAddr: 0x3BA0, symBinAddr: 0x100009644, symSize: 0x28 }
  - { offsetInCU: 0xFD12, offset: 0x2C502, size: 0x8, addend: 0x0, symName: __ZNKSt3__16vectorI9PredicateNS_9allocatorIS1_EEE4sizeB7v160006Ev, symObjAddr: 0x3BC8, symBinAddr: 0x10000966C, symSize: 0x28 }
  - { offsetInCU: 0xFD37, offset: 0x2C527, size: 0x8, addend: 0x0, symName: __ZNSt3__16vectorI9PredicateNS_9allocatorIS1_EEE22__base_destruct_at_endB7v160006EPS1_, symObjAddr: 0x3C04, symBinAddr: 0x1000096A8, symSize: 0x8C }
  - { offsetInCU: 0xFD7C, offset: 0x2C56C, size: 0x8, addend: 0x0, symName: __ZNSt3__116allocator_traitsINS_9allocatorI9PredicateEEE7destroyB7v160006IS2_vEEvRS3_PT_, symObjAddr: 0x3C90, symBinAddr: 0x100009734, symSize: 0x2C }
  - { offsetInCU: 0xFDB8, offset: 0x2C5A8, size: 0x8, addend: 0x0, symName: __ZNSt3__19allocatorI9PredicateE7destroyB7v160006EPS1_, symObjAddr: 0x3CBC, symBinAddr: 0x100009760, symSize: 0x28 }
  - { offsetInCU: 0xFDEC, offset: 0x2C5DC, size: 0x8, addend: 0x0, symName: __ZNSt3__19allocatorI9PredicateE10deallocateB7v160006EPS1_m, symObjAddr: 0x3CE4, symBinAddr: 0x100009788, symSize: 0x40 }
  - { offsetInCU: 0xFE2E, offset: 0x2C61E, size: 0x8, addend: 0x0, symName: __ZNSt3__117__compressed_pairIP9PredicateNS_9allocatorIS1_EEE6secondB7v160006Ev, symObjAddr: 0x3D24, symBinAddr: 0x1000097C8, symSize: 0x24 }
  - { offsetInCU: 0xFE55, offset: 0x2C645, size: 0x8, addend: 0x0, symName: __ZNSt3__122__compressed_pair_elemINS_9allocatorI9PredicateEELi1ELb1EE5__getB7v160006Ev, symObjAddr: 0x3D48, symBinAddr: 0x1000097EC, symSize: 0x14 }
  - { offsetInCU: 0xFE7A, offset: 0x2C66A, size: 0x8, addend: 0x0, symName: __ZNKSt3__16vectorI9PredicateNS_9allocatorIS1_EEE9__end_capB7v160006Ev, symObjAddr: 0x3D5C, symBinAddr: 0x100009800, symSize: 0x28 }
  - { offsetInCU: 0xFEA0, offset: 0x2C690, size: 0x8, addend: 0x0, symName: __ZNKSt3__117__compressed_pairIP9PredicateNS_9allocatorIS1_EEE5firstB7v160006Ev, symObjAddr: 0x3D84, symBinAddr: 0x100009828, symSize: 0x24 }
  - { offsetInCU: 0xFEC7, offset: 0x2C6B7, size: 0x8, addend: 0x0, symName: __ZNKSt3__122__compressed_pair_elemIP9PredicateLi0ELb0EE5__getB7v160006Ev, symObjAddr: 0x3DA8, symBinAddr: 0x10000984C, symSize: 0x14 }
  - { offsetInCU: 0xFEED, offset: 0x2C6DD, size: 0x8, addend: 0x0, symName: __ZNSt3__117__hash_value_typeI9ItemFieldNS_6vectorI9PredicateNS_9allocatorIS3_EEEEE11__get_valueB7v160006Ev, symObjAddr: 0x3DBC, symBinAddr: 0x100009860, symSize: 0x14 }
  - { offsetInCU: 0xFF12, offset: 0x2C702, size: 0x8, addend: 0x0, symName: __ZNSt3__19allocatorINS_11__hash_nodeINS_17__hash_value_typeI9ItemFieldNS_6vectorI9PredicateNS0_IS5_EEEEEEPvEEE10deallocateB7v160006EPSA_m, symObjAddr: 0x3DD0, symBinAddr: 0x100009874, symSize: 0x44 }
  - { offsetInCU: 0xFF55, offset: 0x2C745, size: 0x8, addend: 0x0, symName: __ZNSt3__122__compressed_pair_elemINS_16__hash_node_baseIPNS_11__hash_nodeINS_17__hash_value_typeI9ItemFieldNS_6vectorI9PredicateNS_9allocatorIS6_EEEEEEPvEEEELi0ELb0EE5__getB7v160006Ev, symObjAddr: 0x3E14, symBinAddr: 0x1000098B8, symSize: 0x14 }
  - { offsetInCU: 0xFF7B, offset: 0x2C76B, size: 0x8, addend: 0x0, symName: __ZNSt3__110unique_ptrIA_PNS_16__hash_node_baseIPNS_11__hash_nodeINS_17__hash_value_typeI9ItemFieldNS_6vectorI9PredicateNS_9allocatorIS6_EEEEEEPvEEEENS_25__bucket_list_deallocatorINS7_ISF_EEEEED2B7v160006Ev, symObjAddr: 0x3E28, symBinAddr: 0x1000098CC, symSize: 0x30 }
  - { offsetInCU: 0xFFA4, offset: 0x2C794, size: 0x8, addend: 0x0, symName: __ZNSt3__110unique_ptrIA_PNS_16__hash_node_baseIPNS_11__hash_nodeINS_17__hash_value_typeI9ItemFieldNS_6vectorI9PredicateNS_9allocatorIS6_EEEEEEPvEEEENS_25__bucket_list_deallocatorINS7_ISF_EEEEE5resetB7v160006EDn, symObjAddr: 0x3E58, symBinAddr: 0x1000098FC, symSize: 0x6C }
  - { offsetInCU: 0xFFE5, offset: 0x2C7D5, size: 0x8, addend: 0x0, symName: __ZNSt3__117__compressed_pairIPPNS_16__hash_node_baseIPNS_11__hash_nodeINS_17__hash_value_typeI9ItemFieldNS_6vectorI9PredicateNS_9allocatorIS6_EEEEEEPvEEEENS_25__bucket_list_deallocatorINS7_ISF_EEEEE5firstB7v160006Ev, symObjAddr: 0x3EC4, symBinAddr: 0x100009968, symSize: 0x24 }
  - { offsetInCU: 0x1000B, offset: 0x2C7FB, size: 0x8, addend: 0x0, symName: __ZNSt3__117__compressed_pairIPPNS_16__hash_node_baseIPNS_11__hash_nodeINS_17__hash_value_typeI9ItemFieldNS_6vectorI9PredicateNS_9allocatorIS6_EEEEEEPvEEEENS_25__bucket_list_deallocatorINS7_ISF_EEEEE6secondB7v160006Ev, symObjAddr: 0x3EE8, symBinAddr: 0x10000998C, symSize: 0x28 }
  - { offsetInCU: 0x10031, offset: 0x2C821, size: 0x8, addend: 0x0, symName: __ZNSt3__125__bucket_list_deallocatorINS_9allocatorIPNS_16__hash_node_baseIPNS_11__hash_nodeINS_17__hash_value_typeI9ItemFieldNS_6vectorI9PredicateNS1_IS7_EEEEEEPvEEEEEEEclB7v160006EPSF_, symObjAddr: 0x3F10, symBinAddr: 0x1000099B4, symSize: 0x58 }
  - { offsetInCU: 0x10067, offset: 0x2C857, size: 0x8, addend: 0x0, symName: __ZNSt3__122__compressed_pair_elemIPPNS_16__hash_node_baseIPNS_11__hash_nodeINS_17__hash_value_typeI9ItemFieldNS_6vectorI9PredicateNS_9allocatorIS6_EEEEEEPvEEEELi0ELb0EE5__getB7v160006Ev, symObjAddr: 0x3F68, symBinAddr: 0x100009A0C, symSize: 0x14 }
  - { offsetInCU: 0x1008D, offset: 0x2C87D, size: 0x8, addend: 0x0, symName: __ZNSt3__122__compressed_pair_elemINS_25__bucket_list_deallocatorINS_9allocatorIPNS_16__hash_node_baseIPNS_11__hash_nodeINS_17__hash_value_typeI9ItemFieldNS_6vectorI9PredicateNS2_IS8_EEEEEEPvEEEEEEEELi1ELb0EE5__getB7v160006Ev, symObjAddr: 0x3F7C, symBinAddr: 0x100009A20, symSize: 0x14 }
  - { offsetInCU: 0x100B3, offset: 0x2C8A3, size: 0x8, addend: 0x0, symName: __ZNSt3__116allocator_traitsINS_9allocatorIPNS_16__hash_node_baseIPNS_11__hash_nodeINS_17__hash_value_typeI9ItemFieldNS_6vectorI9PredicateNS1_IS7_EEEEEEPvEEEEEEE10deallocateB7v160006ERSG_PSF_m, symObjAddr: 0x3F90, symBinAddr: 0x100009A34, symSize: 0x34 }
  - { offsetInCU: 0x100F4, offset: 0x2C8E4, size: 0x8, addend: 0x0, symName: __ZNSt3__125__bucket_list_deallocatorINS_9allocatorIPNS_16__hash_node_baseIPNS_11__hash_nodeINS_17__hash_value_typeI9ItemFieldNS_6vectorI9PredicateNS1_IS7_EEEEEEPvEEEEEEE7__allocB7v160006Ev, symObjAddr: 0x3FC4, symBinAddr: 0x100009A68, symSize: 0x24 }
  - { offsetInCU: 0x1011A, offset: 0x2C90A, size: 0x8, addend: 0x0, symName: __ZNSt3__125__bucket_list_deallocatorINS_9allocatorIPNS_16__hash_node_baseIPNS_11__hash_nodeINS_17__hash_value_typeI9ItemFieldNS_6vectorI9PredicateNS1_IS7_EEEEEEPvEEEEEEE4sizeB7v160006Ev, symObjAddr: 0x3FE8, symBinAddr: 0x100009A8C, symSize: 0x24 }
  - { offsetInCU: 0x10140, offset: 0x2C930, size: 0x8, addend: 0x0, symName: __ZNSt3__19allocatorIPNS_16__hash_node_baseIPNS_11__hash_nodeINS_17__hash_value_typeI9ItemFieldNS_6vectorI9PredicateNS0_IS6_EEEEEEPvEEEEE10deallocateB7v160006EPSE_m, symObjAddr: 0x400C, symBinAddr: 0x100009AB0, symSize: 0x40 }
  - { offsetInCU: 0x10182, offset: 0x2C972, size: 0x8, addend: 0x0, symName: __ZNSt3__117__compressed_pairImNS_9allocatorIPNS_16__hash_node_baseIPNS_11__hash_nodeINS_17__hash_value_typeI9ItemFieldNS_6vectorI9PredicateNS1_IS7_EEEEEEPvEEEEEEE6secondB7v160006Ev, symObjAddr: 0x404C, symBinAddr: 0x100009AF0, symSize: 0x24 }
  - { offsetInCU: 0x101A9, offset: 0x2C999, size: 0x8, addend: 0x0, symName: __ZNSt3__122__compressed_pair_elemINS_9allocatorIPNS_16__hash_node_baseIPNS_11__hash_nodeINS_17__hash_value_typeI9ItemFieldNS_6vectorI9PredicateNS1_IS7_EEEEEEPvEEEEEELi1ELb1EE5__getB7v160006Ev, symObjAddr: 0x4070, symBinAddr: 0x100009B14, symSize: 0x14 }
  - { offsetInCU: 0x101CE, offset: 0x2C9BE, size: 0x8, addend: 0x0, symName: __ZNSt3__117__compressed_pairImNS_9allocatorIPNS_16__hash_node_baseIPNS_11__hash_nodeINS_17__hash_value_typeI9ItemFieldNS_6vectorI9PredicateNS1_IS7_EEEEEEPvEEEEEEE5firstB7v160006Ev, symObjAddr: 0x4084, symBinAddr: 0x100009B28, symSize: 0x24 }
  - { offsetInCU: 0x101F5, offset: 0x2C9E5, size: 0x8, addend: 0x0, symName: __ZNSt3__122__compressed_pair_elemImLi0ELb0EE5__getB7v160006Ev, symObjAddr: 0x40A8, symBinAddr: 0x100009B4C, symSize: 0x14 }
  - { offsetInCU: 0x10231, offset: 0x2CA21, size: 0x8, addend: 0x0, symName: __ZNSt3__112__hash_tableINS_17__hash_value_typeI9ItemFieldNS_6vectorI9PredicateNS_9allocatorIS4_EEEEEENS_22__unordered_map_hasherIS2_S8_NS_4hashIS2_EENS_8equal_toIS2_EELb1EEENS_21__unordered_map_equalIS2_S8_SD_SB_Lb1EEENS5_IS8_EEE25__emplace_unique_key_argsIS2_JRKNS_21piecewise_construct_tENS_5tupleIJRKS2_EEENSN_IJEEEEEENS_4pairINS_15__hash_iteratorIPNS_11__hash_nodeIS8_PvEEEEbEERKT_DpOT0_, symObjAddr: 0x40BC, symBinAddr: 0x100009B60, symSize: 0x4D0 }
  - { offsetInCU: 0x1033B, offset: 0x2CB2B, size: 0x8, addend: 0x0, symName: __ZNKSt3__115__hash_iteratorIPNS_11__hash_nodeINS_17__hash_value_typeI9ItemFieldNS_6vectorI9PredicateNS_9allocatorIS5_EEEEEEPvEEEptB7v160006Ev, symObjAddr: 0x45BC, symBinAddr: 0x10000A060, symSize: 0x30 }
  - { offsetInCU: 0x10361, offset: 0x2CB51, size: 0x8, addend: 0x0, symName: __ZNSt3__112__hash_tableINS_17__hash_value_typeI9ItemFieldNS_6vectorI9PredicateNS_9allocatorIS4_EEEEEENS_22__unordered_map_hasherIS2_S8_NS_4hashIS2_EENS_8equal_toIS2_EELb1EEENS_21__unordered_map_equalIS2_S8_SD_SB_Lb1EEENS5_IS8_EEE13hash_functionB7v160006Ev, symObjAddr: 0x45EC, symBinAddr: 0x10000A090, symSize: 0x28 }
  - { offsetInCU: 0x10387, offset: 0x2CB77, size: 0x8, addend: 0x0, symName: __ZNKSt3__122__unordered_map_hasherI9ItemFieldNS_17__hash_value_typeIS1_NS_6vectorI9PredicateNS_9allocatorIS4_EEEEEENS_4hashIS1_EENS_8equal_toIS1_EELb1EEclB7v160006ERKS1_, symObjAddr: 0x4614, symBinAddr: 0x10000A0B8, symSize: 0x30 }
  - { offsetInCU: 0x103BC, offset: 0x2CBAC, size: 0x8, addend: 0x0, symName: __ZNKSt3__112__hash_tableINS_17__hash_value_typeI9ItemFieldNS_6vectorI9PredicateNS_9allocatorIS4_EEEEEENS_22__unordered_map_hasherIS2_S8_NS_4hashIS2_EENS_8equal_toIS2_EELb1EEENS_21__unordered_map_equalIS2_S8_SD_SB_Lb1EEENS5_IS8_EEE12bucket_countB7v160006Ev, symObjAddr: 0x4644, symBinAddr: 0x10000A0E8, symSize: 0x28 }
  - { offsetInCU: 0x103E2, offset: 0x2CBD2, size: 0x8, addend: 0x0, symName: __ZNKSt3__110unique_ptrIA_PNS_16__hash_node_baseIPNS_11__hash_nodeINS_17__hash_value_typeI9ItemFieldNS_6vectorI9PredicateNS_9allocatorIS6_EEEEEEPvEEEENS_25__bucket_list_deallocatorINS7_ISF_EEEEEixB7v160006Em, symObjAddr: 0x4704, symBinAddr: 0x10000A1A8, symSize: 0x34 }
  - { offsetInCU: 0x10418, offset: 0x2CC08, size: 0x8, addend: 0x0, symName: __ZNKSt3__116__hash_node_baseIPNS_11__hash_nodeINS_17__hash_value_typeI9ItemFieldNS_6vectorI9PredicateNS_9allocatorIS5_EEEEEEPvEEE6__hashB7v160006Ev, symObjAddr: 0x4738, symBinAddr: 0x10000A1DC, symSize: 0x18 }
  - { offsetInCU: 0x1043D, offset: 0x2CC2D, size: 0x8, addend: 0x0, symName: __ZNSt3__112__hash_tableINS_17__hash_value_typeI9ItemFieldNS_6vectorI9PredicateNS_9allocatorIS4_EEEEEENS_22__unordered_map_hasherIS2_S8_NS_4hashIS2_EENS_8equal_toIS2_EELb1EEENS_21__unordered_map_equalIS2_S8_SD_SB_Lb1EEENS5_IS8_EEE6key_eqB7v160006Ev, symObjAddr: 0x4750, symBinAddr: 0x10000A1F4, symSize: 0x28 }
  - { offsetInCU: 0x10463, offset: 0x2CC53, size: 0x8, addend: 0x0, symName: __ZNKSt3__121__unordered_map_equalI9ItemFieldNS_17__hash_value_typeIS1_NS_6vectorI9PredicateNS_9allocatorIS4_EEEEEENS_8equal_toIS1_EENS_4hashIS1_EELb1EEclB7v160006ERKS8_RKS1_, symObjAddr: 0x4778, symBinAddr: 0x10000A21C, symSize: 0x48 }
  - { offsetInCU: 0x104A7, offset: 0x2CC97, size: 0x8, addend: 0x0, symName: __ZNSt3__112__hash_tableINS_17__hash_value_typeI9ItemFieldNS_6vectorI9PredicateNS_9allocatorIS4_EEEEEENS_22__unordered_map_hasherIS2_S8_NS_4hashIS2_EENS_8equal_toIS2_EELb1EEENS_21__unordered_map_equalIS2_S8_SD_SB_Lb1EEENS5_IS8_EEE21__construct_node_hashIRKNS_21piecewise_construct_tEJNS_5tupleIJRKS2_EEENSN_IJEEEEEENS_10unique_ptrINS_11__hash_nodeIS8_PvEENS_22__hash_node_destructorINS5_ISV_EEEEEEmOT_DpOT0_, symObjAddr: 0x47C0, symBinAddr: 0x10000A264, symSize: 0x150 }
  - { offsetInCU: 0x10543, offset: 0x2CD33, size: 0x8, addend: 0x0, symName: __ZNSt3__112__hash_tableINS_17__hash_value_typeI9ItemFieldNS_6vectorI9PredicateNS_9allocatorIS4_EEEEEENS_22__unordered_map_hasherIS2_S8_NS_4hashIS2_EENS_8equal_toIS2_EELb1EEENS_21__unordered_map_equalIS2_S8_SD_SB_Lb1EEENS5_IS8_EEE4sizeB7v160006Ev, symObjAddr: 0x4910, symBinAddr: 0x10000A3B4, symSize: 0x28 }
  - { offsetInCU: 0x10569, offset: 0x2CD59, size: 0x8, addend: 0x0, symName: __ZNSt3__112__hash_tableINS_17__hash_value_typeI9ItemFieldNS_6vectorI9PredicateNS_9allocatorIS4_EEEEEENS_22__unordered_map_hasherIS2_S8_NS_4hashIS2_EENS_8equal_toIS2_EELb1EEENS_21__unordered_map_equalIS2_S8_SD_SB_Lb1EEENS5_IS8_EEE15max_load_factorB7v160006Ev, symObjAddr: 0x4938, symBinAddr: 0x10000A3DC, symSize: 0x28 }
  - { offsetInCU: 0x1058F, offset: 0x2CD7F, size: 0x8, addend: 0x0, symName: __ZNSt3__112__hash_tableINS_17__hash_value_typeI9ItemFieldNS_6vectorI9PredicateNS_9allocatorIS4_EEEEEENS_22__unordered_map_hasherIS2_S8_NS_4hashIS2_EENS_8equal_toIS2_EELb1EEENS_21__unordered_map_equalIS2_S8_SD_SB_Lb1EEENS5_IS8_EEE15__rehash_uniqueB7v160006Em, symObjAddr: 0x4960, symBinAddr: 0x10000A404, symSize: 0x2C }
  - { offsetInCU: 0x105C4, offset: 0x2CDB4, size: 0x8, addend: 0x0, symName: __Z4ceilB7v160006f, symObjAddr: 0x4A08, symBinAddr: 0x10000A4AC, symSize: 0x18 }
  - { offsetInCU: 0x105F3, offset: 0x2CDE3, size: 0x8, addend: 0x0, symName: __ZNSt3__116__hash_node_baseIPNS_11__hash_nodeINS_17__hash_value_typeI9ItemFieldNS_6vectorI9PredicateNS_9allocatorIS5_EEEEEEPvEEE5__ptrB7v160006Ev, symObjAddr: 0x4A20, symBinAddr: 0x10000A4C4, symSize: 0x24 }
  - { offsetInCU: 0x10619, offset: 0x2CE09, size: 0x8, addend: 0x0, symName: __ZNKSt3__110unique_ptrINS_11__hash_nodeINS_17__hash_value_typeI9ItemFieldNS_6vectorI9PredicateNS_9allocatorIS5_EEEEEEPvEENS_22__hash_node_destructorINS6_ISB_EEEEEptB7v160006Ev, symObjAddr: 0x4A44, symBinAddr: 0x10000A4E8, symSize: 0x28 }
  - { offsetInCU: 0x1063F, offset: 0x2CE2F, size: 0x8, addend: 0x0, symName: __ZNKSt3__110unique_ptrINS_11__hash_nodeINS_17__hash_value_typeI9ItemFieldNS_6vectorI9PredicateNS_9allocatorIS5_EEEEEEPvEENS_22__hash_node_destructorINS6_ISB_EEEEE3getB7v160006Ev, symObjAddr: 0x4A6C, symBinAddr: 0x10000A510, symSize: 0x28 }
  - { offsetInCU: 0x10665, offset: 0x2CE55, size: 0x8, addend: 0x0, symName: __ZNSt3__110unique_ptrINS_11__hash_nodeINS_17__hash_value_typeI9ItemFieldNS_6vectorI9PredicateNS_9allocatorIS5_EEEEEEPvEENS_22__hash_node_destructorINS6_ISB_EEEEE7releaseB7v160006Ev, symObjAddr: 0x4A94, symBinAddr: 0x10000A538, symSize: 0x44 }
  - { offsetInCU: 0x1069B, offset: 0x2CE8B, size: 0x8, addend: 0x0, symName: __ZNSt3__110unique_ptrINS_11__hash_nodeINS_17__hash_value_typeI9ItemFieldNS_6vectorI9PredicateNS_9allocatorIS5_EEEEEEPvEENS_22__hash_node_destructorINS6_ISB_EEEEED1B7v160006Ev, symObjAddr: 0x4AD8, symBinAddr: 0x10000A57C, symSize: 0x2C }
  - { offsetInCU: 0x106C5, offset: 0x2CEB5, size: 0x8, addend: 0x0, symName: __ZNSt3__115__hash_iteratorIPNS_11__hash_nodeINS_17__hash_value_typeI9ItemFieldNS_6vectorI9PredicateNS_9allocatorIS5_EEEEEEPvEEEC1B7v160006EPNS_16__hash_node_baseISC_EEPKv, symObjAddr: 0x4B04, symBinAddr: 0x10000A5A8, symSize: 0x3C }
  - { offsetInCU: 0x10719, offset: 0x2CF09, size: 0x8, addend: 0x0, symName: __ZNSt3__14pairINS_15__hash_iteratorIPNS_11__hash_nodeINS_17__hash_value_typeI9ItemFieldNS_6vectorI9PredicateNS_9allocatorIS6_EEEEEEPvEEEEbEC1B7v160006ISE_RbLSB_0EEEOT_OT0_, symObjAddr: 0x4B40, symBinAddr: 0x10000A5E4, symSize: 0x3C }
  - { offsetInCU: 0x10776, offset: 0x2CF66, size: 0x8, addend: 0x0, symName: __ZNSt3__117__compressed_pairImNS_22__unordered_map_hasherI9ItemFieldNS_17__hash_value_typeIS2_NS_6vectorI9PredicateNS_9allocatorIS5_EEEEEENS_4hashIS2_EENS_8equal_toIS2_EELb1EEEE6secondB7v160006Ev, symObjAddr: 0x4B7C, symBinAddr: 0x10000A620, symSize: 0x24 }
  - { offsetInCU: 0x1079D, offset: 0x2CF8D, size: 0x8, addend: 0x0, symName: __ZNSt3__122__compressed_pair_elemINS_22__unordered_map_hasherI9ItemFieldNS_17__hash_value_typeIS2_NS_6vectorI9PredicateNS_9allocatorIS5_EEEEEENS_4hashIS2_EENS_8equal_toIS2_EELb1EEELi1ELb1EE5__getB7v160006Ev, symObjAddr: 0x4BA0, symBinAddr: 0x10000A644, symSize: 0x14 }
  - { offsetInCU: 0x107CD, offset: 0x2CFBD, size: 0x8, addend: 0x0, symName: __ZNKSt3__14hashIjEclB7v160006Ej, symObjAddr: 0x4BE0, symBinAddr: 0x10000A684, symSize: 0x1C }
  - { offsetInCU: 0x10801, offset: 0x2CFF1, size: 0x8, addend: 0x0, symName: __ZNKSt3__110unique_ptrIA_PNS_16__hash_node_baseIPNS_11__hash_nodeINS_17__hash_value_typeI9ItemFieldNS_6vectorI9PredicateNS_9allocatorIS6_EEEEEEPvEEEENS_25__bucket_list_deallocatorINS7_ISF_EEEEE11get_deleterB7v160006Ev, symObjAddr: 0x4BFC, symBinAddr: 0x10000A6A0, symSize: 0x24 }
  - { offsetInCU: 0x10827, offset: 0x2D017, size: 0x8, addend: 0x0, symName: __ZNKSt3__125__bucket_list_deallocatorINS_9allocatorIPNS_16__hash_node_baseIPNS_11__hash_nodeINS_17__hash_value_typeI9ItemFieldNS_6vectorI9PredicateNS1_IS7_EEEEEEPvEEEEEEE4sizeB7v160006Ev, symObjAddr: 0x4C20, symBinAddr: 0x10000A6C4, symSize: 0x28 }
  - { offsetInCU: 0x1084D, offset: 0x2D03D, size: 0x8, addend: 0x0, symName: __ZNKSt3__117__compressed_pairIPPNS_16__hash_node_baseIPNS_11__hash_nodeINS_17__hash_value_typeI9ItemFieldNS_6vectorI9PredicateNS_9allocatorIS6_EEEEEEPvEEEENS_25__bucket_list_deallocatorINS7_ISF_EEEEE6secondB7v160006Ev, symObjAddr: 0x4C48, symBinAddr: 0x10000A6EC, symSize: 0x28 }
  - { offsetInCU: 0x10874, offset: 0x2D064, size: 0x8, addend: 0x0, symName: __ZNKSt3__122__compressed_pair_elemINS_25__bucket_list_deallocatorINS_9allocatorIPNS_16__hash_node_baseIPNS_11__hash_nodeINS_17__hash_value_typeI9ItemFieldNS_6vectorI9PredicateNS2_IS8_EEEEEEPvEEEEEEEELi1ELb0EE5__getB7v160006Ev, symObjAddr: 0x4C70, symBinAddr: 0x10000A714, symSize: 0x14 }
  - { offsetInCU: 0x10899, offset: 0x2D089, size: 0x8, addend: 0x0, symName: __ZNKSt3__117__compressed_pairImNS_9allocatorIPNS_16__hash_node_baseIPNS_11__hash_nodeINS_17__hash_value_typeI9ItemFieldNS_6vectorI9PredicateNS1_IS7_EEEEEEPvEEEEEEE5firstB7v160006Ev, symObjAddr: 0x4C84, symBinAddr: 0x10000A728, symSize: 0x24 }
  - { offsetInCU: 0x108C0, offset: 0x2D0B0, size: 0x8, addend: 0x0, symName: __ZNKSt3__122__compressed_pair_elemImLi0ELb0EE5__getB7v160006Ev, symObjAddr: 0x4CA8, symBinAddr: 0x10000A74C, symSize: 0x14 }
  - { offsetInCU: 0x108E5, offset: 0x2D0D5, size: 0x8, addend: 0x0, symName: __ZNKSt3__117__compressed_pairIPPNS_16__hash_node_baseIPNS_11__hash_nodeINS_17__hash_value_typeI9ItemFieldNS_6vectorI9PredicateNS_9allocatorIS6_EEEEEEPvEEEENS_25__bucket_list_deallocatorINS7_ISF_EEEEE5firstB7v160006Ev, symObjAddr: 0x4CBC, symBinAddr: 0x10000A760, symSize: 0x24 }
  - { offsetInCU: 0x1090C, offset: 0x2D0FC, size: 0x8, addend: 0x0, symName: __ZNKSt3__122__compressed_pair_elemIPPNS_16__hash_node_baseIPNS_11__hash_nodeINS_17__hash_value_typeI9ItemFieldNS_6vectorI9PredicateNS_9allocatorIS6_EEEEEEPvEEEELi0ELb0EE5__getB7v160006Ev, symObjAddr: 0x4CE0, symBinAddr: 0x10000A784, symSize: 0x14 }
  - { offsetInCU: 0x10931, offset: 0x2D121, size: 0x8, addend: 0x0, symName: __ZNSt3__117__compressed_pairIfNS_21__unordered_map_equalI9ItemFieldNS_17__hash_value_typeIS2_NS_6vectorI9PredicateNS_9allocatorIS5_EEEEEENS_8equal_toIS2_EENS_4hashIS2_EELb1EEEE6secondB7v160006Ev, symObjAddr: 0x4CF4, symBinAddr: 0x10000A798, symSize: 0x24 }
  - { offsetInCU: 0x10958, offset: 0x2D148, size: 0x8, addend: 0x0, symName: __ZNSt3__122__compressed_pair_elemINS_21__unordered_map_equalI9ItemFieldNS_17__hash_value_typeIS2_NS_6vectorI9PredicateNS_9allocatorIS5_EEEEEENS_8equal_toIS2_EENS_4hashIS2_EELb1EEELi1ELb1EE5__getB7v160006Ev, symObjAddr: 0x4D18, symBinAddr: 0x10000A7BC, symSize: 0x14 }
  - { offsetInCU: 0x1097E, offset: 0x2D16E, size: 0x8, addend: 0x0, symName: __ZNKSt3__18equal_toI9ItemFieldEclB7v160006ERKS1_S4_, symObjAddr: 0x4D2C, symBinAddr: 0x10000A7D0, symSize: 0x34 }
  - { offsetInCU: 0x109C2, offset: 0x2D1B2, size: 0x8, addend: 0x0, symName: __ZNKSt3__117__hash_value_typeI9ItemFieldNS_6vectorI9PredicateNS_9allocatorIS3_EEEEE11__get_valueB7v160006Ev, symObjAddr: 0x4D60, symBinAddr: 0x10000A804, symSize: 0x14 }
  - { offsetInCU: 0x109E8, offset: 0x2D1D8, size: 0x8, addend: 0x0, symName: __ZNSt3__116allocator_traitsINS_9allocatorINS_11__hash_nodeINS_17__hash_value_typeI9ItemFieldNS_6vectorI9PredicateNS1_IS6_EEEEEEPvEEEEE8allocateB7v160006ERSC_m, symObjAddr: 0x4D74, symBinAddr: 0x10000A818, symSize: 0x2C }
  - { offsetInCU: 0x10A1B, offset: 0x2D20B, size: 0x8, addend: 0x0, symName: __ZNSt3__122__hash_node_destructorINS_9allocatorINS_11__hash_nodeINS_17__hash_value_typeI9ItemFieldNS_6vectorI9PredicateNS1_IS6_EEEEEEPvEEEEEC1B7v160006ERSC_b, symObjAddr: 0x4DA0, symBinAddr: 0x10000A844, symSize: 0x48 }
  - { offsetInCU: 0x10A69, offset: 0x2D259, size: 0x8, addend: 0x0, symName: __ZNSt3__110unique_ptrINS_11__hash_nodeINS_17__hash_value_typeI9ItemFieldNS_6vectorI9PredicateNS_9allocatorIS5_EEEEEEPvEENS_22__hash_node_destructorINS6_ISB_EEEEEC1B7v160006ILb1EvEEPSB_NS_16__dependent_typeINS_27__unique_ptr_deleter_sfinaeISE_EEXT_EE20__good_rval_ref_typeE, symObjAddr: 0x4DE8, symBinAddr: 0x10000A88C, symSize: 0x3C }
  - { offsetInCU: 0x10ABA, offset: 0x2D2AA, size: 0x8, addend: 0x0, symName: __ZNSt3__116allocator_traitsINS_9allocatorINS_11__hash_nodeINS_17__hash_value_typeI9ItemFieldNS_6vectorI9PredicateNS1_IS6_EEEEEEPvEEEEE9constructB7v160006INS_4pairIKS4_S8_EEJRKNS_21piecewise_construct_tENS_5tupleIJRSG_EEENSL_IJEEEEvEEvRSC_PT_DpOT0_, symObjAddr: 0x4E24, symBinAddr: 0x10000A8C8, symSize: 0x44 }
  - { offsetInCU: 0x10B38, offset: 0x2D328, size: 0x8, addend: 0x0, symName: __ZNSt3__110unique_ptrINS_11__hash_nodeINS_17__hash_value_typeI9ItemFieldNS_6vectorI9PredicateNS_9allocatorIS5_EEEEEEPvEENS_22__hash_node_destructorINS6_ISB_EEEEE11get_deleterB7v160006Ev, symObjAddr: 0x4E68, symBinAddr: 0x10000A90C, symSize: 0x24 }
  - { offsetInCU: 0x10B5E, offset: 0x2D34E, size: 0x8, addend: 0x0, symName: __ZNSt3__19allocatorINS_11__hash_nodeINS_17__hash_value_typeI9ItemFieldNS_6vectorI9PredicateNS0_IS5_EEEEEEPvEEE8allocateB7v160006Em, symObjAddr: 0x4E8C, symBinAddr: 0x10000A930, symSize: 0x5C }
  - { offsetInCU: 0x10B9E, offset: 0x2D38E, size: 0x8, addend: 0x0, symName: __ZNSt3__116allocator_traitsINS_9allocatorINS_11__hash_nodeINS_17__hash_value_typeI9ItemFieldNS_6vectorI9PredicateNS1_IS6_EEEEEEPvEEEEE8max_sizeB7v160006ISC_vEEmRKSC_, symObjAddr: 0x4EE8, symBinAddr: 0x10000A98C, symSize: 0x24 }
  - { offsetInCU: 0x10BCC, offset: 0x2D3BC, size: 0x8, addend: 0x0, symName: __ZNKSt3__19allocatorINS_11__hash_nodeINS_17__hash_value_typeI9ItemFieldNS_6vectorI9PredicateNS0_IS5_EEEEEEPvEEE8max_sizeB7v160006Ev, symObjAddr: 0x4F0C, symBinAddr: 0x10000A9B0, symSize: 0x18 }
  - { offsetInCU: 0x10BF2, offset: 0x2D3E2, size: 0x8, addend: 0x0, symName: __ZNSt3__122__hash_node_destructorINS_9allocatorINS_11__hash_nodeINS_17__hash_value_typeI9ItemFieldNS_6vectorI9PredicateNS1_IS6_EEEEEEPvEEEEEC2B7v160006ERSC_b, symObjAddr: 0x4F24, symBinAddr: 0x10000A9C8, symSize: 0x38 }
  - { offsetInCU: 0x10C3A, offset: 0x2D42A, size: 0x8, addend: 0x0, symName: __ZNSt3__110unique_ptrINS_11__hash_nodeINS_17__hash_value_typeI9ItemFieldNS_6vectorI9PredicateNS_9allocatorIS5_EEEEEEPvEENS_22__hash_node_destructorINS6_ISB_EEEEEC2B7v160006ILb1EvEEPSB_NS_16__dependent_typeINS_27__unique_ptr_deleter_sfinaeISE_EEXT_EE20__good_rval_ref_typeE, symObjAddr: 0x4F5C, symBinAddr: 0x10000AA00, symSize: 0x48 }
  - { offsetInCU: 0x10C8B, offset: 0x2D47B, size: 0x8, addend: 0x0, symName: __ZNSt3__117__compressed_pairIPNS_11__hash_nodeINS_17__hash_value_typeI9ItemFieldNS_6vectorI9PredicateNS_9allocatorIS5_EEEEEEPvEENS_22__hash_node_destructorINS6_ISB_EEEEEC1B7v160006IRSC_SF_EEOT_OT0_, symObjAddr: 0x4FA4, symBinAddr: 0x10000AA48, symSize: 0x3C }
  - { offsetInCU: 0x10CE3, offset: 0x2D4D3, size: 0x8, addend: 0x0, symName: __ZNSt3__117__compressed_pairIPNS_11__hash_nodeINS_17__hash_value_typeI9ItemFieldNS_6vectorI9PredicateNS_9allocatorIS5_EEEEEEPvEENS_22__hash_node_destructorINS6_ISB_EEEEEC2B7v160006IRSC_SF_EEOT_OT0_, symObjAddr: 0x4FE0, symBinAddr: 0x10000AA84, symSize: 0x48 }
  - { offsetInCU: 0x10D3B, offset: 0x2D52B, size: 0x8, addend: 0x0, symName: __ZNSt3__122__compressed_pair_elemIPNS_11__hash_nodeINS_17__hash_value_typeI9ItemFieldNS_6vectorI9PredicateNS_9allocatorIS5_EEEEEEPvEELi0ELb0EEC2B7v160006IRSC_vEEOT_, symObjAddr: 0x5028, symBinAddr: 0x10000AACC, symSize: 0x24 }
  - { offsetInCU: 0x10D7D, offset: 0x2D56D, size: 0x8, addend: 0x0, symName: __ZNSt3__122__compressed_pair_elemINS_22__hash_node_destructorINS_9allocatorINS_11__hash_nodeINS_17__hash_value_typeI9ItemFieldNS_6vectorI9PredicateNS2_IS7_EEEEEEPvEEEEEELi1ELb0EEC2B7v160006ISE_vEEOT_, symObjAddr: 0x504C, symBinAddr: 0x10000AAF0, symSize: 0x24 }
  - { offsetInCU: 0x10DBE, offset: 0x2D5AE, size: 0x8, addend: 0x0, symName: __ZNSt3__19allocatorINS_11__hash_nodeINS_17__hash_value_typeI9ItemFieldNS_6vectorI9PredicateNS0_IS5_EEEEEEPvEEE9constructB7v160006INS_4pairIKS3_S7_EEJRKNS_21piecewise_construct_tENS_5tupleIJRSE_EEENSJ_IJEEEEEEvPT_DpOT0_, symObjAddr: 0x5070, symBinAddr: 0x10000AB14, symSize: 0x44 }
  - { offsetInCU: 0x10E3B, offset: 0x2D62B, size: 0x8, addend: 0x0, symName: __ZNSt3__14pairIK9ItemFieldNS_6vectorI9PredicateNS_9allocatorIS4_EEEEEC1B7v160006IJRS2_EJEEENS_21piecewise_construct_tENS_5tupleIJDpT_EEENSC_IJDpT0_EEE, symObjAddr: 0x50B4, symBinAddr: 0x10000AB58, symSize: 0x44 }
  - { offsetInCU: 0x10EA2, offset: 0x2D692, size: 0x8, addend: 0x0, symName: __ZNSt3__14pairIK9ItemFieldNS_6vectorI9PredicateNS_9allocatorIS4_EEEEEC1B7v160006IJRS2_EJEJLm0EEJEEENS_21piecewise_construct_tERNS_5tupleIJDpT_EEERNSC_IJDpT0_EEENS_15__tuple_indicesIJXspT1_EEEENSL_IJXspT2_EEEE, symObjAddr: 0x50F8, symBinAddr: 0x10000AB9C, symSize: 0x3C }
  - { offsetInCU: 0x10F32, offset: 0x2D722, size: 0x8, addend: 0x0, symName: __ZNSt3__14pairIK9ItemFieldNS_6vectorI9PredicateNS_9allocatorIS4_EEEEEC2B7v160006IJRS2_EJEJLm0EEJEEENS_21piecewise_construct_tERNS_5tupleIJDpT_EEERNSC_IJDpT0_EEENS_15__tuple_indicesIJXspT1_EEEENSL_IJXspT2_EEEE, symObjAddr: 0x5134, symBinAddr: 0x10000ABD8, symSize: 0x4C }
  - { offsetInCU: 0x10FC2, offset: 0x2D7B2, size: 0x8, addend: 0x0, symName: __ZNSt3__16vectorI9PredicateNS_9allocatorIS1_EEEC1B7v160006Ev, symObjAddr: 0x51A4, symBinAddr: 0x10000AC48, symSize: 0x2C }
  - { offsetInCU: 0x10FEC, offset: 0x2D7DC, size: 0x8, addend: 0x0, symName: __ZNSt3__112__tuple_leafILm0ERK9ItemFieldLb0EE3getB7v160006Ev, symObjAddr: 0x51D0, symBinAddr: 0x10000AC74, symSize: 0x18 }
  - { offsetInCU: 0x11012, offset: 0x2D802, size: 0x8, addend: 0x0, symName: __ZNSt3__16vectorI9PredicateNS_9allocatorIS1_EEEC2B7v160006Ev, symObjAddr: 0x51E8, symBinAddr: 0x10000AC8C, symSize: 0x58 }
  - { offsetInCU: 0x1103C, offset: 0x2D82C, size: 0x8, addend: 0x0, symName: __ZNSt3__117__compressed_pairIP9PredicateNS_9allocatorIS1_EEEC1B7v160006IDnNS_18__default_init_tagEEEOT_OT0_, symObjAddr: 0x5240, symBinAddr: 0x10000ACE4, symSize: 0x3C }
  - { offsetInCU: 0x11094, offset: 0x2D884, size: 0x8, addend: 0x0, symName: __ZNSt3__117__compressed_pairIP9PredicateNS_9allocatorIS1_EEEC2B7v160006IDnNS_18__default_init_tagEEEOT_OT0_, symObjAddr: 0x528C, symBinAddr: 0x10000AD30, symSize: 0x40 }
  - { offsetInCU: 0x110EC, offset: 0x2D8DC, size: 0x8, addend: 0x0, symName: __ZNSt3__122__compressed_pair_elemIP9PredicateLi0ELb0EEC2B7v160006IDnvEEOT_, symObjAddr: 0x52CC, symBinAddr: 0x10000AD70, symSize: 0x1C }
  - { offsetInCU: 0x1112E, offset: 0x2D91E, size: 0x8, addend: 0x0, symName: __ZNSt3__122__compressed_pair_elemINS_9allocatorI9PredicateEELi1ELb1EEC2B7v160006ENS_18__default_init_tagE, symObjAddr: 0x52E8, symBinAddr: 0x10000AD8C, symSize: 0x2C }
  - { offsetInCU: 0x11163, offset: 0x2D953, size: 0x8, addend: 0x0, symName: __ZNSt3__19allocatorI9PredicateEC2B7v160006Ev, symObjAddr: 0x5314, symBinAddr: 0x10000ADB8, symSize: 0x2C }
  - { offsetInCU: 0x1118D, offset: 0x2D97D, size: 0x8, addend: 0x0, symName: __ZNSt3__116__non_trivial_ifILb1ENS_9allocatorI9PredicateEEEC2B7v160006Ev, symObjAddr: 0x5340, symBinAddr: 0x10000ADE4, symSize: 0x14 }
  - { offsetInCU: 0x111B6, offset: 0x2D9A6, size: 0x8, addend: 0x0, symName: __ZNSt3__117__compressed_pairIPNS_11__hash_nodeINS_17__hash_value_typeI9ItemFieldNS_6vectorI9PredicateNS_9allocatorIS5_EEEEEEPvEENS_22__hash_node_destructorINS6_ISB_EEEEE6secondB7v160006Ev, symObjAddr: 0x5354, symBinAddr: 0x10000ADF8, symSize: 0x28 }
  - { offsetInCU: 0x111DD, offset: 0x2D9CD, size: 0x8, addend: 0x0, symName: __ZNSt3__122__compressed_pair_elemINS_22__hash_node_destructorINS_9allocatorINS_11__hash_nodeINS_17__hash_value_typeI9ItemFieldNS_6vectorI9PredicateNS2_IS7_EEEEEEPvEEEEEELi1ELb0EE5__getB7v160006Ev, symObjAddr: 0x537C, symBinAddr: 0x10000AE20, symSize: 0x14 }
  - { offsetInCU: 0x11202, offset: 0x2D9F2, size: 0x8, addend: 0x0, symName: __ZNSt3__117__compressed_pairImNS_22__unordered_map_hasherI9ItemFieldNS_17__hash_value_typeIS2_NS_6vectorI9PredicateNS_9allocatorIS5_EEEEEENS_4hashIS2_EENS_8equal_toIS2_EELb1EEEE5firstB7v160006Ev, symObjAddr: 0x5390, symBinAddr: 0x10000AE34, symSize: 0x24 }
  - { offsetInCU: 0x11228, offset: 0x2DA18, size: 0x8, addend: 0x0, symName: __ZNSt3__117__compressed_pairIfNS_21__unordered_map_equalI9ItemFieldNS_17__hash_value_typeIS2_NS_6vectorI9PredicateNS_9allocatorIS5_EEEEEENS_8equal_toIS2_EENS_4hashIS2_EELb1EEEE5firstB7v160006Ev, symObjAddr: 0x53B4, symBinAddr: 0x10000AE58, symSize: 0x24 }
  - { offsetInCU: 0x1124F, offset: 0x2DA3F, size: 0x8, addend: 0x0, symName: __ZNSt3__122__compressed_pair_elemIfLi0ELb0EE5__getB7v160006Ev, symObjAddr: 0x53D8, symBinAddr: 0x10000AE7C, symSize: 0x14 }
  - { offsetInCU: 0x11274, offset: 0x2DA64, size: 0x8, addend: 0x0, symName: __ZNSt3__112__hash_tableINS_17__hash_value_typeI9ItemFieldNS_6vectorI9PredicateNS_9allocatorIS4_EEEEEENS_22__unordered_map_hasherIS2_S8_NS_4hashIS2_EENS_8equal_toIS2_EELb1EEENS_21__unordered_map_equalIS2_S8_SD_SB_Lb1EEENS5_IS8_EEE8__rehashILb1EEEvm, symObjAddr: 0x53EC, symBinAddr: 0x10000AE90, symSize: 0x1A8 }
  - { offsetInCU: 0x112C4, offset: 0x2DAB4, size: 0x8, addend: 0x0, symName: __ZNSt3__112__hash_tableINS_17__hash_value_typeI9ItemFieldNS_6vectorI9PredicateNS_9allocatorIS4_EEEEEENS_22__unordered_map_hasherIS2_S8_NS_4hashIS2_EENS_8equal_toIS2_EELb1EEENS_21__unordered_map_equalIS2_S8_SD_SB_Lb1EEENS5_IS8_EEE11__do_rehashILb1EEEvm, symObjAddr: 0x5594, symBinAddr: 0x10000B038, symSize: 0x290 }
  - { offsetInCU: 0x113AB, offset: 0x2DB9B, size: 0x8, addend: 0x0, symName: __ZNSt3__110unique_ptrIA_PNS_16__hash_node_baseIPNS_11__hash_nodeINS_17__hash_value_typeI9ItemFieldNS_6vectorI9PredicateNS_9allocatorIS6_EEEEEEPvEEEENS_25__bucket_list_deallocatorINS7_ISF_EEEEE11get_deleterB7v160006Ev, symObjAddr: 0x58A0, symBinAddr: 0x10000B344, symSize: 0x24 }
  - { offsetInCU: 0x113D1, offset: 0x2DBC1, size: 0x8, addend: 0x0, symName: __ZNSt3__110unique_ptrIA_PNS_16__hash_node_baseIPNS_11__hash_nodeINS_17__hash_value_typeI9ItemFieldNS_6vectorI9PredicateNS_9allocatorIS6_EEEEEEPvEEEENS_25__bucket_list_deallocatorINS7_ISF_EEEEE5resetB7v160006IPSF_EENS_9enable_ifIXsr28_CheckArrayPointerConversionIT_EE5valueEvE4typeESO_, symObjAddr: 0x58C4, symBinAddr: 0x10000B368, symSize: 0x78 }
  - { offsetInCU: 0x1141F, offset: 0x2DC0F, size: 0x8, addend: 0x0, symName: __ZNSt3__116allocator_traitsINS_9allocatorIPNS_16__hash_node_baseIPNS_11__hash_nodeINS_17__hash_value_typeI9ItemFieldNS_6vectorI9PredicateNS1_IS7_EEEEEEPvEEEEEEE8allocateB7v160006ERSG_m, symObjAddr: 0x593C, symBinAddr: 0x10000B3E0, symSize: 0x2C }
  - { offsetInCU: 0x11451, offset: 0x2DC41, size: 0x8, addend: 0x0, symName: __ZNSt3__19allocatorIPNS_16__hash_node_baseIPNS_11__hash_nodeINS_17__hash_value_typeI9ItemFieldNS_6vectorI9PredicateNS0_IS6_EEEEEEPvEEEEE8allocateB7v160006Em, symObjAddr: 0x5968, symBinAddr: 0x10000B40C, symSize: 0x58 }
  - { offsetInCU: 0x11491, offset: 0x2DC81, size: 0x8, addend: 0x0, symName: __ZNSt3__116allocator_traitsINS_9allocatorIPNS_16__hash_node_baseIPNS_11__hash_nodeINS_17__hash_value_typeI9ItemFieldNS_6vectorI9PredicateNS1_IS7_EEEEEEPvEEEEEEE8max_sizeB7v160006ISG_vEEmRKSG_, symObjAddr: 0x59C0, symBinAddr: 0x10000B464, symSize: 0x24 }
  - { offsetInCU: 0x114BF, offset: 0x2DCAF, size: 0x8, addend: 0x0, symName: __ZNKSt3__19allocatorIPNS_16__hash_node_baseIPNS_11__hash_nodeINS_17__hash_value_typeI9ItemFieldNS_6vectorI9PredicateNS0_IS6_EEEEEEPvEEEEE8max_sizeB7v160006Ev, symObjAddr: 0x59E4, symBinAddr: 0x10000B488, symSize: 0x14 }
  - { offsetInCU: 0x114E4, offset: 0x2DCD4, size: 0x8, addend: 0x0, symName: __ZNKSt3__117__compressed_pairIPNS_11__hash_nodeINS_17__hash_value_typeI9ItemFieldNS_6vectorI9PredicateNS_9allocatorIS5_EEEEEEPvEENS_22__hash_node_destructorINS6_ISB_EEEEE5firstB7v160006Ev, symObjAddr: 0x5A68, symBinAddr: 0x10000B50C, symSize: 0x24 }
  - { offsetInCU: 0x1150B, offset: 0x2DCFB, size: 0x8, addend: 0x0, symName: __ZNKSt3__122__compressed_pair_elemIPNS_11__hash_nodeINS_17__hash_value_typeI9ItemFieldNS_6vectorI9PredicateNS_9allocatorIS5_EEEEEEPvEELi0ELb0EE5__getB7v160006Ev, symObjAddr: 0x5A8C, symBinAddr: 0x10000B530, symSize: 0x14 }
  - { offsetInCU: 0x11530, offset: 0x2DD20, size: 0x8, addend: 0x0, symName: __ZNSt3__117__compressed_pairIPNS_11__hash_nodeINS_17__hash_value_typeI9ItemFieldNS_6vectorI9PredicateNS_9allocatorIS5_EEEEEEPvEENS_22__hash_node_destructorINS6_ISB_EEEEE5firstB7v160006Ev, symObjAddr: 0x5AA0, symBinAddr: 0x10000B544, symSize: 0x24 }
  - { offsetInCU: 0x11557, offset: 0x2DD47, size: 0x8, addend: 0x0, symName: __ZNSt3__122__compressed_pair_elemIPNS_11__hash_nodeINS_17__hash_value_typeI9ItemFieldNS_6vectorI9PredicateNS_9allocatorIS5_EEEEEEPvEELi0ELb0EE5__getB7v160006Ev, symObjAddr: 0x5AC4, symBinAddr: 0x10000B568, symSize: 0x14 }
  - { offsetInCU: 0x1157D, offset: 0x2DD6D, size: 0x8, addend: 0x0, symName: __ZNSt3__110unique_ptrINS_11__hash_nodeINS_17__hash_value_typeI9ItemFieldNS_6vectorI9PredicateNS_9allocatorIS5_EEEEEEPvEENS_22__hash_node_destructorINS6_ISB_EEEEED2B7v160006Ev, symObjAddr: 0x5AD8, symBinAddr: 0x10000B57C, symSize: 0x30 }
  - { offsetInCU: 0x115A6, offset: 0x2DD96, size: 0x8, addend: 0x0, symName: __ZNSt3__110unique_ptrINS_11__hash_nodeINS_17__hash_value_typeI9ItemFieldNS_6vectorI9PredicateNS_9allocatorIS5_EEEEEEPvEENS_22__hash_node_destructorINS6_ISB_EEEEE5resetB7v160006EPSB_, symObjAddr: 0x5B08, symBinAddr: 0x10000B5AC, symSize: 0x78 }
  - { offsetInCU: 0x115EA, offset: 0x2DDDA, size: 0x8, addend: 0x0, symName: __ZNSt3__122__hash_node_destructorINS_9allocatorINS_11__hash_nodeINS_17__hash_value_typeI9ItemFieldNS_6vectorI9PredicateNS1_IS6_EEEEEEPvEEEEEclB7v160006EPSB_, symObjAddr: 0x5B80, symBinAddr: 0x10000B624, symSize: 0x94 }
  - { offsetInCU: 0x11620, offset: 0x2DE10, size: 0x8, addend: 0x0, symName: __ZNSt3__115__hash_iteratorIPNS_11__hash_nodeINS_17__hash_value_typeI9ItemFieldNS_6vectorI9PredicateNS_9allocatorIS5_EEEEEEPvEEEC2B7v160006EPNS_16__hash_node_baseISC_EEPKv, symObjAddr: 0x5C14, symBinAddr: 0x10000B6B8, symSize: 0x24 }
  - { offsetInCU: 0x11668, offset: 0x2DE58, size: 0x8, addend: 0x0, symName: __ZNSt3__14pairINS_15__hash_iteratorIPNS_11__hash_nodeINS_17__hash_value_typeI9ItemFieldNS_6vectorI9PredicateNS_9allocatorIS6_EEEEEEPvEEEEbEC2B7v160006ISE_RbLSB_0EEEOT_OT0_, symObjAddr: 0x5C38, symBinAddr: 0x10000B6DC, symSize: 0x38 }
  - { offsetInCU: 0x116C6, offset: 0x2DEB6, size: 0x8, addend: 0x0, symName: __ZNSt3__15tupleIJRK9ItemFieldEEC1B7v160006INS_4_AndELi0EEES3_, symObjAddr: 0x5C70, symBinAddr: 0x10000B714, symSize: 0x34 }
  - { offsetInCU: 0x1170F, offset: 0x2DEFF, size: 0x8, addend: 0x0, symName: __ZNSt3__15tupleIJRK9ItemFieldEEC2B7v160006INS_4_AndELi0EEES3_, symObjAddr: 0x5CA4, symBinAddr: 0x10000B748, symSize: 0x34 }
  - { offsetInCU: 0x11758, offset: 0x2DF48, size: 0x8, addend: 0x0, symName: __ZNSt3__112__tuple_implINS_15__tuple_indicesIJLm0EEEEJRK9ItemFieldEEC1B7v160006IJLm0EEJS5_EJEJEJS5_EEENS1_IJXspT_EEEENS_13__tuple_typesIJDpT0_EEENS1_IJXspT1_EEEENS9_IJDpT2_EEEDpOT3_, symObjAddr: 0x5CD8, symBinAddr: 0x10000B77C, symSize: 0x34 }
  - { offsetInCU: 0x117ED, offset: 0x2DFDD, size: 0x8, addend: 0x0, symName: __ZNSt3__112__tuple_implINS_15__tuple_indicesIJLm0EEEEJRK9ItemFieldEEC2B7v160006IJLm0EEJS5_EJEJEJS5_EEENS1_IJXspT_EEEENS_13__tuple_typesIJDpT0_EEENS1_IJXspT1_EEEENS9_IJDpT2_EEEDpOT3_, symObjAddr: 0x5D0C, symBinAddr: 0x10000B7B0, symSize: 0x34 }
  - { offsetInCU: 0x11882, offset: 0x2E072, size: 0x8, addend: 0x0, symName: __ZNSt3__112__tuple_leafILm0ERK9ItemFieldLb0EEC2B7v160006IS3_vEEOT_, symObjAddr: 0x5D40, symBinAddr: 0x10000B7E4, symSize: 0x20 }
  - { offsetInCU: 0x118C5, offset: 0x2E0B5, size: 0x8, addend: 0x0, symName: __ZNSt3__114pointer_traitsIPNS_17__hash_value_typeI9ItemFieldNS_6vectorI9PredicateNS_9allocatorIS4_EEEEEEE10pointer_toB7v160006ERS8_, symObjAddr: 0x5D60, symBinAddr: 0x10000B804, symSize: 0x14 }
  - { offsetInCU: 0x118E7, offset: 0x2E0D7, size: 0x8, addend: 0x0, symName: __ZNSt3__16vectorI9PredicateNS_9allocatorIS1_EEE9__end_capB7v160006Ev, symObjAddr: 0x5D74, symBinAddr: 0x10000B818, symSize: 0x28 }
  - { offsetInCU: 0x1190D, offset: 0x2E0FD, size: 0x8, addend: 0x0, symName: __ZNSt3__16vectorI9PredicateNS_9allocatorIS1_EEE22__construct_one_at_endB7v160006IJRKS1_EEEvDpOT_, symObjAddr: 0x5D9C, symBinAddr: 0x10000B840, symSize: 0x90 }
  - { offsetInCU: 0x1195C, offset: 0x2E14C, size: 0x8, addend: 0x0, symName: __ZNSt3__16vectorI9PredicateNS_9allocatorIS1_EEE21__push_back_slow_pathIRKS1_EEvOT_, symObjAddr: 0x5E2C, symBinAddr: 0x10000B8D0, symSize: 0xD8 }
  - { offsetInCU: 0x119BA, offset: 0x2E1AA, size: 0x8, addend: 0x0, symName: __ZNSt3__117__compressed_pairIP9PredicateNS_9allocatorIS1_EEE5firstB7v160006Ev, symObjAddr: 0x5F04, symBinAddr: 0x10000B9A8, symSize: 0x24 }
  - { offsetInCU: 0x119E1, offset: 0x2E1D1, size: 0x8, addend: 0x0, symName: __ZNSt3__122__compressed_pair_elemIP9PredicateLi0ELb0EE5__getB7v160006Ev, symObjAddr: 0x5F28, symBinAddr: 0x10000B9CC, symSize: 0x14 }
  - { offsetInCU: 0x11A22, offset: 0x2E212, size: 0x8, addend: 0x0, symName: __ZNSt3__16vectorI9PredicateNS_9allocatorIS1_EEE21_ConstructTransactionC1B7v160006ERS4_m, symObjAddr: 0x5F3C, symBinAddr: 0x10000B9E0, symSize: 0x3C }
  - { offsetInCU: 0x11A6A, offset: 0x2E25A, size: 0x8, addend: 0x0, symName: __ZNSt3__116allocator_traitsINS_9allocatorI9PredicateEEE9constructB7v160006IS2_JRKS2_EvEEvRS3_PT_DpOT0_, symObjAddr: 0x5F78, symBinAddr: 0x10000BA1C, symSize: 0x34 }
  - { offsetInCU: 0x11AC1, offset: 0x2E2B1, size: 0x8, addend: 0x0, symName: __ZNSt3__16vectorI9PredicateNS_9allocatorIS1_EEE21_ConstructTransactionD1B7v160006Ev, symObjAddr: 0x5FAC, symBinAddr: 0x10000BA50, symSize: 0x2C }
  - { offsetInCU: 0x11AEB, offset: 0x2E2DB, size: 0x8, addend: 0x0, symName: __ZNSt3__16vectorI9PredicateNS_9allocatorIS1_EEE21_ConstructTransactionC2B7v160006ERS4_m, symObjAddr: 0x5FD8, symBinAddr: 0x10000BA7C, symSize: 0x44 }
  - { offsetInCU: 0x11B32, offset: 0x2E322, size: 0x8, addend: 0x0, symName: __ZNSt3__19allocatorI9PredicateE9constructB7v160006IS1_JRKS1_EEEvPT_DpOT0_, symObjAddr: 0x601C, symBinAddr: 0x10000BAC0, symSize: 0x30 }
  - { offsetInCU: 0x11B89, offset: 0x2E379, size: 0x8, addend: 0x0, symName: __ZN9PredicateC1ERKS_, symObjAddr: 0x604C, symBinAddr: 0x10000BAF0, symSize: 0x34 }
  - { offsetInCU: 0x11BBE, offset: 0x2E3AE, size: 0x8, addend: 0x0, symName: __ZN9PredicateC2ERKS_, symObjAddr: 0x6080, symBinAddr: 0x10000BB24, symSize: 0x48 }
  - { offsetInCU: 0x11BF3, offset: 0x2E3E3, size: 0x8, addend: 0x0, symName: __ZNSt3__16vectorI9PredicateNS_9allocatorIS1_EEE21_ConstructTransactionD2B7v160006Ev, symObjAddr: 0x60C8, symBinAddr: 0x10000BB6C, symSize: 0x20 }
  - { offsetInCU: 0x11C1C, offset: 0x2E40C, size: 0x8, addend: 0x0, symName: __ZNKSt3__16vectorI9PredicateNS_9allocatorIS1_EEE11__recommendB7v160006Em, symObjAddr: 0x60E8, symBinAddr: 0x10000BB8C, symSize: 0xB4 }
  - { offsetInCU: 0x11C72, offset: 0x2E462, size: 0x8, addend: 0x0, symName: __ZNSt3__114__split_bufferI9PredicateRNS_9allocatorIS1_EEEC1EmmS4_, symObjAddr: 0x619C, symBinAddr: 0x10000BC40, symSize: 0x44 }
  - { offsetInCU: 0x11CC8, offset: 0x2E4B8, size: 0x8, addend: 0x0, symName: __ZNSt3__114__split_bufferI9PredicateRNS_9allocatorIS1_EEED1Ev, symObjAddr: 0x62F8, symBinAddr: 0x10000BD9C, symSize: 0x2C }
  - { offsetInCU: 0x11CF3, offset: 0x2E4E3, size: 0x8, addend: 0x0, symName: __ZNKSt3__16vectorI9PredicateNS_9allocatorIS1_EEE8max_sizeEv, symObjAddr: 0x6324, symBinAddr: 0x10000BDC8, symSize: 0x60 }
  - { offsetInCU: 0x11D1B, offset: 0x2E50B, size: 0x8, addend: 0x0, symName: __ZNKSt3__16vectorI9PredicateNS_9allocatorIS1_EEE20__throw_length_errorB7v160006Ev, symObjAddr: 0x6384, symBinAddr: 0x10000BE28, symSize: 0x1C }
  - { offsetInCU: 0x11D4D, offset: 0x2E53D, size: 0x8, addend: 0x0, symName: __ZNSt3__116allocator_traitsINS_9allocatorI9PredicateEEE8max_sizeB7v160006IS3_vEEmRKS3_, symObjAddr: 0x63A0, symBinAddr: 0x10000BE44, symSize: 0x24 }
  - { offsetInCU: 0x11D7A, offset: 0x2E56A, size: 0x8, addend: 0x0, symName: __ZNKSt3__16vectorI9PredicateNS_9allocatorIS1_EEE7__allocB7v160006Ev, symObjAddr: 0x63C4, symBinAddr: 0x10000BE68, symSize: 0x28 }
  - { offsetInCU: 0x11DA1, offset: 0x2E591, size: 0x8, addend: 0x0, symName: __ZNKSt3__19allocatorI9PredicateE8max_sizeB7v160006Ev, symObjAddr: 0x63EC, symBinAddr: 0x10000BE90, symSize: 0x14 }
  - { offsetInCU: 0x11DC6, offset: 0x2E5B6, size: 0x8, addend: 0x0, symName: __ZNKSt3__117__compressed_pairIP9PredicateNS_9allocatorIS1_EEE6secondB7v160006Ev, symObjAddr: 0x6400, symBinAddr: 0x10000BEA4, symSize: 0x24 }
  - { offsetInCU: 0x11DED, offset: 0x2E5DD, size: 0x8, addend: 0x0, symName: __ZNKSt3__122__compressed_pair_elemINS_9allocatorI9PredicateEELi1ELb1EE5__getB7v160006Ev, symObjAddr: 0x6424, symBinAddr: 0x10000BEC8, symSize: 0x14 }
  - { offsetInCU: 0x11E13, offset: 0x2E603, size: 0x8, addend: 0x0, symName: __ZNSt3__114__split_bufferI9PredicateRNS_9allocatorIS1_EEEC2EmmS4_, symObjAddr: 0x6438, symBinAddr: 0x10000BEDC, symSize: 0xD4 }
  - { offsetInCU: 0x11E87, offset: 0x2E677, size: 0x8, addend: 0x0, symName: __ZNSt3__117__compressed_pairIP9PredicateRNS_9allocatorIS1_EEEC1B7v160006IDnS5_EEOT_OT0_, symObjAddr: 0x650C, symBinAddr: 0x10000BFB0, symSize: 0x3C }
  - { offsetInCU: 0x11EDE, offset: 0x2E6CE, size: 0x8, addend: 0x0, symName: __ZNSt3__114__split_bufferI9PredicateRNS_9allocatorIS1_EEE7__allocB7v160006Ev, symObjAddr: 0x6588, symBinAddr: 0x10000C02C, symSize: 0x28 }
  - { offsetInCU: 0x11F04, offset: 0x2E6F4, size: 0x8, addend: 0x0, symName: __ZNSt3__114__split_bufferI9PredicateRNS_9allocatorIS1_EEE9__end_capB7v160006Ev, symObjAddr: 0x65B0, symBinAddr: 0x10000C054, symSize: 0x28 }
  - { offsetInCU: 0x11F2B, offset: 0x2E71B, size: 0x8, addend: 0x0, symName: __ZNSt3__117__compressed_pairIP9PredicateRNS_9allocatorIS1_EEEC2B7v160006IDnS5_EEOT_OT0_, symObjAddr: 0x65D8, symBinAddr: 0x10000C07C, symSize: 0x48 }
  - { offsetInCU: 0x11F83, offset: 0x2E773, size: 0x8, addend: 0x0, symName: __ZNSt3__122__compressed_pair_elemIRNS_9allocatorI9PredicateEELi1ELb0EEC2B7v160006IS4_vEEOT_, symObjAddr: 0x6620, symBinAddr: 0x10000C0C4, symSize: 0x20 }
  - { offsetInCU: 0x11FC4, offset: 0x2E7B4, size: 0x8, addend: 0x0, symName: __ZNSt3__19allocatorI9PredicateE8allocateB7v160006Em, symObjAddr: 0x6640, symBinAddr: 0x10000C0E4, symSize: 0x58 }
  - { offsetInCU: 0x11FF8, offset: 0x2E7E8, size: 0x8, addend: 0x0, symName: __ZNSt3__117__compressed_pairIP9PredicateRNS_9allocatorIS1_EEE6secondB7v160006Ev, symObjAddr: 0x6698, symBinAddr: 0x10000C13C, symSize: 0x28 }
  - { offsetInCU: 0x1201F, offset: 0x2E80F, size: 0x8, addend: 0x0, symName: __ZNSt3__122__compressed_pair_elemIRNS_9allocatorI9PredicateEELi1ELb0EE5__getB7v160006Ev, symObjAddr: 0x66C0, symBinAddr: 0x10000C164, symSize: 0x18 }
  - { offsetInCU: 0x12044, offset: 0x2E834, size: 0x8, addend: 0x0, symName: __ZNSt3__117__compressed_pairIP9PredicateRNS_9allocatorIS1_EEE5firstB7v160006Ev, symObjAddr: 0x66D8, symBinAddr: 0x10000C17C, symSize: 0x24 }
  - { offsetInCU: 0x1206B, offset: 0x2E85B, size: 0x8, addend: 0x0, symName: __ZNSt3__116reverse_iteratorIP9PredicateEC1B7v160006ES2_, symObjAddr: 0x6828, symBinAddr: 0x10000C2CC, symSize: 0x34 }
  - { offsetInCU: 0x120A3, offset: 0x2E893, size: 0x8, addend: 0x0, symName: __ZNKSt3__116reverse_iteratorIP9PredicateE4baseB7v160006Ev, symObjAddr: 0x685C, symBinAddr: 0x10000C300, symSize: 0x18 }
  - { offsetInCU: 0x120C8, offset: 0x2E8B8, size: 0x8, addend: 0x0, symName: __ZNKSt3__16vectorI9PredicateNS_9allocatorIS1_EEE14__annotate_newB7v160006Em, symObjAddr: 0x68B0, symBinAddr: 0x10000C354, symSize: 0xAC }
  - { offsetInCU: 0x120FE, offset: 0x2E8EE, size: 0x8, addend: 0x0, symName: __ZNSt3__129_AllocatorDestroyRangeReverseINS_9allocatorI9PredicateEENS_16reverse_iteratorIPS2_EEEC1B7v160006ERS3_RS6_S9_, symObjAddr: 0x69B8, symBinAddr: 0x10000C45C, symSize: 0x44 }
  - { offsetInCU: 0x1215B, offset: 0x2E94B, size: 0x8, addend: 0x0, symName: __ZNSt3__116allocator_traitsINS_9allocatorI9PredicateEEE9constructB7v160006IS2_JS2_EvEEvRS3_PT_DpOT0_, symObjAddr: 0x6A44, symBinAddr: 0x10000C4E8, symSize: 0x34 }
  - { offsetInCU: 0x121B2, offset: 0x2E9A2, size: 0x8, addend: 0x0, symName: __ZNKSt3__116reverse_iteratorIP9PredicateEdeB7v160006Ev, symObjAddr: 0x6A9C, symBinAddr: 0x10000C540, symSize: 0x28 }
  - { offsetInCU: 0x121E6, offset: 0x2E9D6, size: 0x8, addend: 0x0, symName: __ZNSt3__116reverse_iteratorIP9PredicateEppB7v160006Ev, symObjAddr: 0x6AC4, symBinAddr: 0x10000C568, symSize: 0x20 }
  - { offsetInCU: 0x1220C, offset: 0x2E9FC, size: 0x8, addend: 0x0, symName: __ZNSt3__128__exception_guard_exceptionsINS_29_AllocatorDestroyRangeReverseINS_9allocatorI9PredicateEENS_16reverse_iteratorIPS3_EEEEE10__completeB7v160006Ev, symObjAddr: 0x6AE4, symBinAddr: 0x10000C588, symSize: 0x1C }
  - { offsetInCU: 0x12232, offset: 0x2EA22, size: 0x8, addend: 0x0, symName: __ZNSt3__128__exception_guard_exceptionsINS_29_AllocatorDestroyRangeReverseINS_9allocatorI9PredicateEENS_16reverse_iteratorIPS3_EEEEED1B7v160006Ev, symObjAddr: 0x6B00, symBinAddr: 0x10000C5A4, symSize: 0x2C }
  - { offsetInCU: 0x1225C, offset: 0x2EA4C, size: 0x8, addend: 0x0, symName: __ZNSt3__128__exception_guard_exceptionsINS_29_AllocatorDestroyRangeReverseINS_9allocatorI9PredicateEENS_16reverse_iteratorIPS3_EEEEEC1B7v160006ES8_, symObjAddr: 0x6B2C, symBinAddr: 0x10000C5D0, symSize: 0x34 }
  - { offsetInCU: 0x12295, offset: 0x2EA85, size: 0x8, addend: 0x0, symName: __ZNSt3__128__exception_guard_exceptionsINS_29_AllocatorDestroyRangeReverseINS_9allocatorI9PredicateEENS_16reverse_iteratorIPS3_EEEEEC2B7v160006ES8_, symObjAddr: 0x6B60, symBinAddr: 0x10000C604, symSize: 0x30 }
  - { offsetInCU: 0x122CE, offset: 0x2EABE, size: 0x8, addend: 0x0, symName: __ZNSt3__129_AllocatorDestroyRangeReverseINS_9allocatorI9PredicateEENS_16reverse_iteratorIPS2_EEEC2B7v160006ERS3_RS6_S9_, symObjAddr: 0x6B90, symBinAddr: 0x10000C634, symSize: 0x38 }
  - { offsetInCU: 0x12324, offset: 0x2EB14, size: 0x8, addend: 0x0, symName: __ZNSt3__19allocatorI9PredicateE9constructB7v160006IS1_JS1_EEEvPT_DpOT0_, symObjAddr: 0x6BC8, symBinAddr: 0x10000C66C, symSize: 0x30 }
  - { offsetInCU: 0x1237B, offset: 0x2EB6B, size: 0x8, addend: 0x0, symName: __ZN9PredicateC1EOS_, symObjAddr: 0x6BF8, symBinAddr: 0x10000C69C, symSize: 0x34 }
  - { offsetInCU: 0x123B0, offset: 0x2EBA0, size: 0x8, addend: 0x0, symName: __ZN9PredicateC2EOS_, symObjAddr: 0x6C2C, symBinAddr: 0x10000C6D0, symSize: 0x48 }
  - { offsetInCU: 0x123E5, offset: 0x2EBD5, size: 0x8, addend: 0x0, symName: __ZNSt3__112basic_stringIcNS_11char_traitsIcEENS_9allocatorIcEEEC1B7v160006EOS5_, symObjAddr: 0x6C74, symBinAddr: 0x10000C718, symSize: 0x34 }
  - { offsetInCU: 0x1241E, offset: 0x2EC0E, size: 0x8, addend: 0x0, symName: __ZNSt3__112basic_stringIcNS_11char_traitsIcEENS_9allocatorIcEEEC2B7v160006EOS5_, symObjAddr: 0x6CA8, symBinAddr: 0x10000C74C, symSize: 0x84 }
  - { offsetInCU: 0x12456, offset: 0x2EC46, size: 0x8, addend: 0x0, symName: __ZNSt3__112basic_stringIcNS_11char_traitsIcEENS_9allocatorIcEEE14__default_initB7v160006Ev, symObjAddr: 0x6D2C, symBinAddr: 0x10000C7D0, symSize: 0x40 }
  - { offsetInCU: 0x12483, offset: 0x2EC73, size: 0x8, addend: 0x0, symName: __ZNSt3__119__to_address_helperINS_16reverse_iteratorIP9PredicateEEvE6__callB7v160006ERKS4_, symObjAddr: 0x6E28, symBinAddr: 0x10000C824, symSize: 0x38 }
  - { offsetInCU: 0x124A5, offset: 0x2EC95, size: 0x8, addend: 0x0, symName: __ZNKSt3__116reverse_iteratorIP9PredicateEptB7v160006Ev, symObjAddr: 0x6E60, symBinAddr: 0x10000C85C, symSize: 0x24 }
  - { offsetInCU: 0x124CC, offset: 0x2ECBC, size: 0x8, addend: 0x0, symName: __ZNSt3__128__exception_guard_exceptionsINS_29_AllocatorDestroyRangeReverseINS_9allocatorI9PredicateEENS_16reverse_iteratorIPS3_EEEEED2B7v160006Ev, symObjAddr: 0x6E84, symBinAddr: 0x10000C880, symSize: 0x50 }
  - { offsetInCU: 0x124F5, offset: 0x2ECE5, size: 0x8, addend: 0x0, symName: __ZNKSt3__129_AllocatorDestroyRangeReverseINS_9allocatorI9PredicateEENS_16reverse_iteratorIPS2_EEEclB7v160006Ev, symObjAddr: 0x6ED4, symBinAddr: 0x10000C8D0, symSize: 0xB4 }
  - { offsetInCU: 0x1251D, offset: 0x2ED0D, size: 0x8, addend: 0x0, symName: __ZNSt3__116reverse_iteratorINS0_IP9PredicateEEEC1B7v160006ES3_, symObjAddr: 0x6FF8, symBinAddr: 0x10000C9F4, symSize: 0x3C }
  - { offsetInCU: 0x12554, offset: 0x2ED44, size: 0x8, addend: 0x0, symName: __ZNSt3__116reverse_iteratorINS0_IP9PredicateEEEppB7v160006Ev, symObjAddr: 0x70B8, symBinAddr: 0x10000CAB4, symSize: 0x30 }
  - { offsetInCU: 0x1257B, offset: 0x2ED6B, size: 0x8, addend: 0x0, symName: __ZNKSt3__116reverse_iteratorINS0_IP9PredicateEEE4baseB7v160006Ev, symObjAddr: 0x70E8, symBinAddr: 0x10000CAE4, symSize: 0x24 }
  - { offsetInCU: 0x125A7, offset: 0x2ED97, size: 0x8, addend: 0x0, symName: __ZNSt3__119__to_address_helperINS_16reverse_iteratorINS1_IP9PredicateEEEEvE6__callB7v160006ERKS5_, symObjAddr: 0x710C, symBinAddr: 0x10000CB08, symSize: 0x38 }
  - { offsetInCU: 0x125C9, offset: 0x2EDB9, size: 0x8, addend: 0x0, symName: __ZNKSt3__116reverse_iteratorINS0_IP9PredicateEEEptB7v160006Ev, symObjAddr: 0x7144, symBinAddr: 0x10000CB40, symSize: 0x24 }
  - { offsetInCU: 0x125EF, offset: 0x2EDDF, size: 0x8, addend: 0x0, symName: __ZNKSt3__116reverse_iteratorINS0_IP9PredicateEEEdeB7v160006Ev, symObjAddr: 0x7168, symBinAddr: 0x10000CB64, symSize: 0x34 }
  - { offsetInCU: 0x12624, offset: 0x2EE14, size: 0x8, addend: 0x0, symName: __ZNSt3__116reverse_iteratorIP9PredicateEmmB7v160006Ev, symObjAddr: 0x719C, symBinAddr: 0x10000CB98, symSize: 0x20 }
  - { offsetInCU: 0x1264A, offset: 0x2EE3A, size: 0x8, addend: 0x0, symName: __ZNSt3__116reverse_iteratorINS0_IP9PredicateEEEC2B7v160006ES3_, symObjAddr: 0x71BC, symBinAddr: 0x10000CBB8, symSize: 0x2C }
  - { offsetInCU: 0x12682, offset: 0x2EE72, size: 0x8, addend: 0x0, symName: __ZNSt3__116reverse_iteratorIP9PredicateEC2B7v160006ES2_, symObjAddr: 0x71E8, symBinAddr: 0x10000CBE4, symSize: 0x28 }
  - { offsetInCU: 0x126BA, offset: 0x2EEAA, size: 0x8, addend: 0x0, symName: __ZNSt3__114__split_bufferI9PredicateRNS_9allocatorIS1_EEED2Ev, symObjAddr: 0x7210, symBinAddr: 0x10000CC0C, symSize: 0x8C }
  - { offsetInCU: 0x126E5, offset: 0x2EED5, size: 0x8, addend: 0x0, symName: __ZNSt3__114__split_bufferI9PredicateRNS_9allocatorIS1_EEE5clearB7v160006Ev, symObjAddr: 0x729C, symBinAddr: 0x10000CC98, symSize: 0x28 }
  - { offsetInCU: 0x1270B, offset: 0x2EEFB, size: 0x8, addend: 0x0, symName: __ZNKSt3__114__split_bufferI9PredicateRNS_9allocatorIS1_EEE8capacityB7v160006Ev, symObjAddr: 0x72C4, symBinAddr: 0x10000CCC0, symSize: 0x40 }
  - { offsetInCU: 0x12731, offset: 0x2EF21, size: 0x8, addend: 0x0, symName: __ZNSt3__114__split_bufferI9PredicateRNS_9allocatorIS1_EEE17__destruct_at_endB7v160006EPS1_, symObjAddr: 0x7304, symBinAddr: 0x10000CD00, symSize: 0x2C }
  - { offsetInCU: 0x12765, offset: 0x2EF55, size: 0x8, addend: 0x0, symName: __ZNSt3__114__split_bufferI9PredicateRNS_9allocatorIS1_EEE17__destruct_at_endB7v160006EPS1_NS_17integral_constantIbLb0EEE, symObjAddr: 0x7330, symBinAddr: 0x10000CD2C, symSize: 0x80 }
  - { offsetInCU: 0x127A6, offset: 0x2EF96, size: 0x8, addend: 0x0, symName: __ZNKSt3__114__split_bufferI9PredicateRNS_9allocatorIS1_EEE9__end_capB7v160006Ev, symObjAddr: 0x73B0, symBinAddr: 0x10000CDAC, symSize: 0x28 }
  - { offsetInCU: 0x127CC, offset: 0x2EFBC, size: 0x8, addend: 0x0, symName: __ZNKSt3__117__compressed_pairIP9PredicateRNS_9allocatorIS1_EEE5firstB7v160006Ev, symObjAddr: 0x73D8, symBinAddr: 0x10000CDD4, symSize: 0x24 }
  - { offsetInCU: 0x127F2, offset: 0x2EFE2, size: 0x8, addend: 0x0, symName: __ZNKSt3__112__hash_tableINS_17__hash_value_typeI9ItemFieldNS_6vectorI9PredicateNS_9allocatorIS4_EEEEEENS_22__unordered_map_hasherIS2_S8_NS_4hashIS2_EENS_8equal_toIS2_EELb1EEENS_21__unordered_map_equalIS2_S8_SD_SB_Lb1EEENS5_IS8_EEE4sizeB7v160006Ev, symObjAddr: 0x73FC, symBinAddr: 0x10000CDF8, symSize: 0x2C }
  - { offsetInCU: 0x12818, offset: 0x2F008, size: 0x8, addend: 0x0, symName: __ZNKSt3__117__compressed_pairImNS_22__unordered_map_hasherI9ItemFieldNS_17__hash_value_typeIS2_NS_6vectorI9PredicateNS_9allocatorIS5_EEEEEENS_4hashIS2_EENS_8equal_toIS2_EELb1EEEE5firstB7v160006Ev, symObjAddr: 0x7428, symBinAddr: 0x10000CE24, symSize: 0x24 }
  - { offsetInCU: 0x1283E, offset: 0x2F02E, size: 0x8, addend: 0x0, symName: __ZNKSt3__16vectorI9ItemFieldNS_9allocatorIS1_EEE11__make_iterB7v160006EPKS1_, symObjAddr: 0x744C, symBinAddr: 0x10000CE48, symSize: 0x34 }
  - { offsetInCU: 0x12874, offset: 0x2F064, size: 0x8, addend: 0x0, symName: __ZNSt3__111__wrap_iterIPK9ItemFieldEC1B7v160006EPKvS3_, symObjAddr: 0x7480, symBinAddr: 0x10000CE7C, symSize: 0x3C }
  - { offsetInCU: 0x128BA, offset: 0x2F0AA, size: 0x8, addend: 0x0, symName: __ZNSt3__111__wrap_iterIPK9ItemFieldEC2B7v160006EPKvS3_, symObjAddr: 0x74BC, symBinAddr: 0x10000CEB8, symSize: 0x24 }
  - { offsetInCU: 0x128FF, offset: 0x2F0EF, size: 0x8, addend: 0x0, symName: __ZNKSt3__112__hash_tableINS_17__hash_value_typeI9ItemFieldNS_6vectorI9PredicateNS_9allocatorIS4_EEEEEENS_22__unordered_map_hasherIS2_S8_NS_4hashIS2_EENS_8equal_toIS2_EELb1EEENS_21__unordered_map_equalIS2_S8_SD_SB_Lb1EEENS5_IS8_EEE4findIS2_EENS_21__hash_const_iteratorIPNS_11__hash_nodeIS8_PvEEEERKT_, symObjAddr: 0x74E0, symBinAddr: 0x10000CEDC, symSize: 0x1BC }
  - { offsetInCU: 0x1298B, offset: 0x2F17B, size: 0x8, addend: 0x0, symName: __ZNSt3__125__hash_map_const_iteratorINS_21__hash_const_iteratorIPNS_11__hash_nodeINS_17__hash_value_typeI9ItemFieldNS_6vectorI9PredicateNS_9allocatorIS6_EEEEEEPvEEEEEC1B7v160006ESE_, symObjAddr: 0x769C, symBinAddr: 0x10000D098, symSize: 0x34 }
  - { offsetInCU: 0x129C3, offset: 0x2F1B3, size: 0x8, addend: 0x0, symName: __ZNKSt3__112__hash_tableINS_17__hash_value_typeI9ItemFieldNS_6vectorI9PredicateNS_9allocatorIS4_EEEEEENS_22__unordered_map_hasherIS2_S8_NS_4hashIS2_EENS_8equal_toIS2_EELb1EEENS_21__unordered_map_equalIS2_S8_SD_SB_Lb1EEENS5_IS8_EEE13hash_functionB7v160006Ev, symObjAddr: 0x76D0, symBinAddr: 0x10000D0CC, symSize: 0x28 }
  - { offsetInCU: 0x129E9, offset: 0x2F1D9, size: 0x8, addend: 0x0, symName: __ZNKSt3__112__hash_tableINS_17__hash_value_typeI9ItemFieldNS_6vectorI9PredicateNS_9allocatorIS4_EEEEEENS_22__unordered_map_hasherIS2_S8_NS_4hashIS2_EENS_8equal_toIS2_EELb1EEENS_21__unordered_map_equalIS2_S8_SD_SB_Lb1EEENS5_IS8_EEE6key_eqB7v160006Ev, symObjAddr: 0x76F8, symBinAddr: 0x10000D0F4, symSize: 0x28 }
  - { offsetInCU: 0x12A10, offset: 0x2F200, size: 0x8, addend: 0x0, symName: __ZNSt3__121__hash_const_iteratorIPNS_11__hash_nodeINS_17__hash_value_typeI9ItemFieldNS_6vectorI9PredicateNS_9allocatorIS5_EEEEEEPvEEEC1B7v160006EPNS_16__hash_node_baseISC_EEPKv, symObjAddr: 0x7720, symBinAddr: 0x10000D11C, symSize: 0x3C }
  - { offsetInCU: 0x12A57, offset: 0x2F247, size: 0x8, addend: 0x0, symName: __ZNKSt3__112__hash_tableINS_17__hash_value_typeI9ItemFieldNS_6vectorI9PredicateNS_9allocatorIS4_EEEEEENS_22__unordered_map_hasherIS2_S8_NS_4hashIS2_EENS_8equal_toIS2_EELb1EEENS_21__unordered_map_equalIS2_S8_SD_SB_Lb1EEENS5_IS8_EEE3endEv, symObjAddr: 0x775C, symBinAddr: 0x10000D158, symSize: 0x30 }
  - { offsetInCU: 0x12A7F, offset: 0x2F26F, size: 0x8, addend: 0x0, symName: __ZNKSt3__117__compressed_pairImNS_22__unordered_map_hasherI9ItemFieldNS_17__hash_value_typeIS2_NS_6vectorI9PredicateNS_9allocatorIS5_EEEEEENS_4hashIS2_EENS_8equal_toIS2_EELb1EEEE6secondB7v160006Ev, symObjAddr: 0x778C, symBinAddr: 0x10000D188, symSize: 0x24 }
  - { offsetInCU: 0x12AA6, offset: 0x2F296, size: 0x8, addend: 0x0, symName: __ZNKSt3__122__compressed_pair_elemINS_22__unordered_map_hasherI9ItemFieldNS_17__hash_value_typeIS2_NS_6vectorI9PredicateNS_9allocatorIS5_EEEEEENS_4hashIS2_EENS_8equal_toIS2_EELb1EEELi1ELb1EE5__getB7v160006Ev, symObjAddr: 0x77B0, symBinAddr: 0x10000D1AC, symSize: 0x14 }
  - { offsetInCU: 0x12ACB, offset: 0x2F2BB, size: 0x8, addend: 0x0, symName: __ZNKSt3__117__compressed_pairIfNS_21__unordered_map_equalI9ItemFieldNS_17__hash_value_typeIS2_NS_6vectorI9PredicateNS_9allocatorIS5_EEEEEENS_8equal_toIS2_EENS_4hashIS2_EELb1EEEE6secondB7v160006Ev, symObjAddr: 0x77C4, symBinAddr: 0x10000D1C0, symSize: 0x24 }
  - { offsetInCU: 0x12AF2, offset: 0x2F2E2, size: 0x8, addend: 0x0, symName: __ZNKSt3__122__compressed_pair_elemINS_21__unordered_map_equalI9ItemFieldNS_17__hash_value_typeIS2_NS_6vectorI9PredicateNS_9allocatorIS5_EEEEEENS_8equal_toIS2_EENS_4hashIS2_EELb1EEELi1ELb1EE5__getB7v160006Ev, symObjAddr: 0x77E8, symBinAddr: 0x10000D1E4, symSize: 0x14 }
  - { offsetInCU: 0x12B18, offset: 0x2F308, size: 0x8, addend: 0x0, symName: __ZNSt3__121__hash_const_iteratorIPNS_11__hash_nodeINS_17__hash_value_typeI9ItemFieldNS_6vectorI9PredicateNS_9allocatorIS5_EEEEEEPvEEEC2B7v160006EPNS_16__hash_node_baseISC_EEPKv, symObjAddr: 0x77FC, symBinAddr: 0x10000D1F8, symSize: 0x24 }
  - { offsetInCU: 0x12B60, offset: 0x2F350, size: 0x8, addend: 0x0, symName: __ZNSt3__125__hash_map_const_iteratorINS_21__hash_const_iteratorIPNS_11__hash_nodeINS_17__hash_value_typeI9ItemFieldNS_6vectorI9PredicateNS_9allocatorIS6_EEEEEEPvEEEEEC2B7v160006ESE_, symObjAddr: 0x7820, symBinAddr: 0x10000D21C, symSize: 0x20 }
  - { offsetInCU: 0x12B99, offset: 0x2F389, size: 0x8, addend: 0x0, symName: __ZNSt3__114pointer_traitsIPKNS_4pairIK9ItemFieldNS_6vectorI9PredicateNS_9allocatorIS5_EEEEEEE10pointer_toB7v160006ERSA_, symObjAddr: 0x78A4, symBinAddr: 0x10000D2A0, symSize: 0x14 }
  - { offsetInCU: 0x12BBB, offset: 0x2F3AB, size: 0x8, addend: 0x0, symName: __ZNKSt3__121__hash_const_iteratorIPNS_11__hash_nodeINS_17__hash_value_typeI9ItemFieldNS_6vectorI9PredicateNS_9allocatorIS5_EEEEEEPvEEEptB7v160006Ev, symObjAddr: 0x78B8, symBinAddr: 0x10000D2B4, symSize: 0x30 }
  - { offsetInCU: 0x12BE2, offset: 0x2F3D2, size: 0x8, addend: 0x0, symName: __ZNSt3__114pointer_traitsIPKNS_17__hash_value_typeI9ItemFieldNS_6vectorI9PredicateNS_9allocatorIS4_EEEEEEE10pointer_toB7v160006ERS9_, symObjAddr: 0x78E8, symBinAddr: 0x10000D2E4, symSize: 0x14 }
  - { offsetInCU: 0x12C04, offset: 0x2F3F4, size: 0x8, addend: 0x0, symName: __ZNKSt3__16vectorI9PredicateNS_9allocatorIS1_EEE11__make_iterB7v160006EPKS1_, symObjAddr: 0x78FC, symBinAddr: 0x10000D2F8, symSize: 0x34 }
  - { offsetInCU: 0x12C3A, offset: 0x2F42A, size: 0x8, addend: 0x0, symName: __ZNSt3__111__wrap_iterIPK9PredicateEC1B7v160006EPKvS3_, symObjAddr: 0x7930, symBinAddr: 0x10000D32C, symSize: 0x3C }
  - { offsetInCU: 0x12C80, offset: 0x2F470, size: 0x8, addend: 0x0, symName: __ZNSt3__111__wrap_iterIPK9PredicateEC2B7v160006EPKvS3_, symObjAddr: 0x796C, symBinAddr: 0x10000D368, symSize: 0x24 }
  - { offsetInCU: 0x12CC6, offset: 0x2F4B6, size: 0x8, addend: 0x0, symName: __ZNSt3__16vectorI4ItemNS_9allocatorIS1_EEEC2B7v160006Ev, symObjAddr: 0x7990, symBinAddr: 0x10000D38C, symSize: 0x58 }
  - { offsetInCU: 0x12CF0, offset: 0x2F4E0, size: 0x8, addend: 0x0, symName: __ZNSt3__117__compressed_pairIP4ItemNS_9allocatorIS1_EEEC1B7v160006IDnNS_18__default_init_tagEEEOT_OT0_, symObjAddr: 0x79E8, symBinAddr: 0x10000D3E4, symSize: 0x3C }
  - { offsetInCU: 0x12D48, offset: 0x2F538, size: 0x8, addend: 0x0, symName: __ZNSt3__117__compressed_pairIP4ItemNS_9allocatorIS1_EEEC2B7v160006IDnNS_18__default_init_tagEEEOT_OT0_, symObjAddr: 0x7A34, symBinAddr: 0x10000D430, symSize: 0x40 }
  - { offsetInCU: 0x12DA0, offset: 0x2F590, size: 0x8, addend: 0x0, symName: __ZNSt3__122__compressed_pair_elemIP4ItemLi0ELb0EEC2B7v160006IDnvEEOT_, symObjAddr: 0x7A74, symBinAddr: 0x10000D470, symSize: 0x1C }
  - { offsetInCU: 0x12DE2, offset: 0x2F5D2, size: 0x8, addend: 0x0, symName: __ZNSt3__122__compressed_pair_elemINS_9allocatorI4ItemEELi1ELb1EEC2B7v160006ENS_18__default_init_tagE, symObjAddr: 0x7A90, symBinAddr: 0x10000D48C, symSize: 0x2C }
  - { offsetInCU: 0x12E17, offset: 0x2F607, size: 0x8, addend: 0x0, symName: __ZNSt3__19allocatorI4ItemEC2B7v160006Ev, symObjAddr: 0x7ABC, symBinAddr: 0x10000D4B8, symSize: 0x2C }
  - { offsetInCU: 0x12E41, offset: 0x2F631, size: 0x8, addend: 0x0, symName: __ZNSt3__116__non_trivial_ifILb1ENS_9allocatorI4ItemEEEC2B7v160006Ev, symObjAddr: 0x7AE8, symBinAddr: 0x10000D4E4, symSize: 0x14 }
  - { offsetInCU: 0x12E6B, offset: 0x2F65B, size: 0x8, addend: 0x0, symName: __ZNSt3__16vectorI4ItemNS_9allocatorIS1_EEED2B7v160006Ev, symObjAddr: 0x7AFC, symBinAddr: 0x10000D4F8, symSize: 0x44 }
  - { offsetInCU: 0x12E95, offset: 0x2F685, size: 0x8, addend: 0x0, symName: __ZNSt3__16vectorI4ItemNS_9allocatorIS1_EEE16__destroy_vectorC1ERS4_, symObjAddr: 0x7B40, symBinAddr: 0x10000D53C, symSize: 0x34 }
  - { offsetInCU: 0x12ECD, offset: 0x2F6BD, size: 0x8, addend: 0x0, symName: __ZNSt3__16vectorI4ItemNS_9allocatorIS1_EEE16__destroy_vectorclB7v160006Ev, symObjAddr: 0x7B74, symBinAddr: 0x10000D570, symSize: 0x9C }
  - { offsetInCU: 0x12EF4, offset: 0x2F6E4, size: 0x8, addend: 0x0, symName: __ZNSt3__16vectorI4ItemNS_9allocatorIS1_EEE16__destroy_vectorC2ERS4_, symObjAddr: 0x7C10, symBinAddr: 0x10000D60C, symSize: 0x20 }
  - { offsetInCU: 0x12F2C, offset: 0x2F71C, size: 0x8, addend: 0x0, symName: __ZNKSt3__16vectorI4ItemNS_9allocatorIS1_EEE17__annotate_deleteB7v160006Ev, symObjAddr: 0x7C30, symBinAddr: 0x10000D62C, symSize: 0xD4 }
  - { offsetInCU: 0x12F52, offset: 0x2F742, size: 0x8, addend: 0x0, symName: __ZNSt3__16vectorI4ItemNS_9allocatorIS1_EEE7__clearB7v160006Ev, symObjAddr: 0x7D14, symBinAddr: 0x10000D710, symSize: 0x28 }
  - { offsetInCU: 0x12F79, offset: 0x2F769, size: 0x8, addend: 0x0, symName: __ZNSt3__116allocator_traitsINS_9allocatorI4ItemEEE10deallocateB7v160006ERS3_PS2_m, symObjAddr: 0x7D3C, symBinAddr: 0x10000D738, symSize: 0x34 }
  - { offsetInCU: 0x12FBA, offset: 0x2F7AA, size: 0x8, addend: 0x0, symName: __ZNSt3__16vectorI4ItemNS_9allocatorIS1_EEE7__allocB7v160006Ev, symObjAddr: 0x7D70, symBinAddr: 0x10000D76C, symSize: 0x28 }
  - { offsetInCU: 0x12FE0, offset: 0x2F7D0, size: 0x8, addend: 0x0, symName: __ZNKSt3__16vectorI4ItemNS_9allocatorIS1_EEE8capacityB7v160006Ev, symObjAddr: 0x7D98, symBinAddr: 0x10000D794, symSize: 0x40 }
  - { offsetInCU: 0x13007, offset: 0x2F7F7, size: 0x8, addend: 0x0, symName: __ZNKSt3__16vectorI4ItemNS_9allocatorIS1_EEE31__annotate_contiguous_containerB7v160006EPKvS6_S6_S6_, symObjAddr: 0x7DD8, symBinAddr: 0x10000D7D4, symSize: 0x20 }
  - { offsetInCU: 0x1305C, offset: 0x2F84C, size: 0x8, addend: 0x0, symName: __ZNKSt3__16vectorI4ItemNS_9allocatorIS1_EEE4dataB7v160006Ev, symObjAddr: 0x7DF8, symBinAddr: 0x10000D7F4, symSize: 0x28 }
  - { offsetInCU: 0x13082, offset: 0x2F872, size: 0x8, addend: 0x0, symName: __ZNSt3__16vectorI4ItemNS_9allocatorIS1_EEE22__base_destruct_at_endB7v160006EPS1_, symObjAddr: 0x7E34, symBinAddr: 0x10000D830, symSize: 0x8C }
  - { offsetInCU: 0x130C7, offset: 0x2F8B7, size: 0x8, addend: 0x0, symName: __ZNSt3__116allocator_traitsINS_9allocatorI4ItemEEE7destroyB7v160006IS2_vEEvRS3_PT_, symObjAddr: 0x7EC0, symBinAddr: 0x10000D8BC, symSize: 0x2C }
  - { offsetInCU: 0x13103, offset: 0x2F8F3, size: 0x8, addend: 0x0, symName: __ZNSt3__19allocatorI4ItemE7destroyB7v160006EPS1_, symObjAddr: 0x7EEC, symBinAddr: 0x10000D8E8, symSize: 0x28 }
  - { offsetInCU: 0x13137, offset: 0x2F927, size: 0x8, addend: 0x0, symName: __ZNSt3__19allocatorI4ItemE10deallocateB7v160006EPS1_m, symObjAddr: 0x7F14, symBinAddr: 0x10000D910, symSize: 0x44 }
  - { offsetInCU: 0x13179, offset: 0x2F969, size: 0x8, addend: 0x0, symName: __ZNSt3__117__compressed_pairIP4ItemNS_9allocatorIS1_EEE6secondB7v160006Ev, symObjAddr: 0x7F58, symBinAddr: 0x10000D954, symSize: 0x24 }
  - { offsetInCU: 0x131A0, offset: 0x2F990, size: 0x8, addend: 0x0, symName: __ZNSt3__122__compressed_pair_elemINS_9allocatorI4ItemEELi1ELb1EE5__getB7v160006Ev, symObjAddr: 0x7F7C, symBinAddr: 0x10000D978, symSize: 0x14 }
  - { offsetInCU: 0x131C5, offset: 0x2F9B5, size: 0x8, addend: 0x0, symName: __ZNKSt3__16vectorI4ItemNS_9allocatorIS1_EEE9__end_capB7v160006Ev, symObjAddr: 0x7F90, symBinAddr: 0x10000D98C, symSize: 0x28 }
  - { offsetInCU: 0x131EB, offset: 0x2F9DB, size: 0x8, addend: 0x0, symName: __ZNKSt3__117__compressed_pairIP4ItemNS_9allocatorIS1_EEE5firstB7v160006Ev, symObjAddr: 0x7FB8, symBinAddr: 0x10000D9B4, symSize: 0x24 }
  - { offsetInCU: 0x13212, offset: 0x2FA02, size: 0x8, addend: 0x0, symName: __ZNKSt3__122__compressed_pair_elemIP4ItemLi0ELb0EE5__getB7v160006Ev, symObjAddr: 0x7FDC, symBinAddr: 0x10000D9D8, symSize: 0x14 }
  - { offsetInCU: 0x13237, offset: 0x2FA27, size: 0x8, addend: 0x0, symName: __ZNSt3__16vectorI4ItemNS_9allocatorIS1_EEE8__appendEm, symObjAddr: 0x7FF0, symBinAddr: 0x10000D9EC, symSize: 0x108 }
  - { offsetInCU: 0x13292, offset: 0x2FA82, size: 0x8, addend: 0x0, symName: __ZNSt3__16vectorI4ItemNS_9allocatorIS1_EEE17__destruct_at_endB7v160006EPS1_, symObjAddr: 0x80F8, symBinAddr: 0x10000DAF4, symSize: 0x60 }
  - { offsetInCU: 0x132D6, offset: 0x2FAC6, size: 0x8, addend: 0x0, symName: __ZNSt3__16vectorI4ItemNS_9allocatorIS1_EEE9__end_capB7v160006Ev, symObjAddr: 0x8158, symBinAddr: 0x10000DB54, symSize: 0x28 }
  - { offsetInCU: 0x132FC, offset: 0x2FAEC, size: 0x8, addend: 0x0, symName: __ZNSt3__16vectorI4ItemNS_9allocatorIS1_EEE18__construct_at_endEm, symObjAddr: 0x8180, symBinAddr: 0x10000DB7C, symSize: 0xC8 }
  - { offsetInCU: 0x1336F, offset: 0x2FB5F, size: 0x8, addend: 0x0, symName: __ZNKSt3__16vectorI4ItemNS_9allocatorIS1_EEE11__recommendB7v160006Em, symObjAddr: 0x8248, symBinAddr: 0x10000DC44, symSize: 0xB4 }
  - { offsetInCU: 0x133C5, offset: 0x2FBB5, size: 0x8, addend: 0x0, symName: __ZNSt3__114__split_bufferI4ItemRNS_9allocatorIS1_EEEC1EmmS4_, symObjAddr: 0x82FC, symBinAddr: 0x10000DCF8, symSize: 0x44 }
  - { offsetInCU: 0x1341B, offset: 0x2FC0B, size: 0x8, addend: 0x0, symName: __ZNSt3__114__split_bufferI4ItemRNS_9allocatorIS1_EEE18__construct_at_endEm, symObjAddr: 0x8340, symBinAddr: 0x10000DD3C, symSize: 0xB4 }
  - { offsetInCU: 0x1345E, offset: 0x2FC4E, size: 0x8, addend: 0x0, symName: __ZNSt3__114__split_bufferI4ItemRNS_9allocatorIS1_EEED1Ev, symObjAddr: 0x850C, symBinAddr: 0x10000DF08, symSize: 0x2C }
  - { offsetInCU: 0x13489, offset: 0x2FC79, size: 0x8, addend: 0x0, symName: __ZNSt3__117__compressed_pairIP4ItemNS_9allocatorIS1_EEE5firstB7v160006Ev, symObjAddr: 0x8538, symBinAddr: 0x10000DF34, symSize: 0x24 }
  - { offsetInCU: 0x134B0, offset: 0x2FCA0, size: 0x8, addend: 0x0, symName: __ZNSt3__122__compressed_pair_elemIP4ItemLi0ELb0EE5__getB7v160006Ev, symObjAddr: 0x855C, symBinAddr: 0x10000DF58, symSize: 0x14 }
  - { offsetInCU: 0x134F1, offset: 0x2FCE1, size: 0x8, addend: 0x0, symName: __ZNSt3__16vectorI4ItemNS_9allocatorIS1_EEE21_ConstructTransactionC1B7v160006ERS4_m, symObjAddr: 0x8570, symBinAddr: 0x10000DF6C, symSize: 0x3C }
  - { offsetInCU: 0x13539, offset: 0x2FD29, size: 0x8, addend: 0x0, symName: __ZNSt3__116allocator_traitsINS_9allocatorI4ItemEEE9constructB7v160006IS2_JEvEEvRS3_PT_DpOT0_, symObjAddr: 0x85AC, symBinAddr: 0x10000DFA8, symSize: 0x2C }
  - { offsetInCU: 0x1357B, offset: 0x2FD6B, size: 0x8, addend: 0x0, symName: __ZNSt3__16vectorI4ItemNS_9allocatorIS1_EEE21_ConstructTransactionD1B7v160006Ev, symObjAddr: 0x85D8, symBinAddr: 0x10000DFD4, symSize: 0x2C }
  - { offsetInCU: 0x135A5, offset: 0x2FD95, size: 0x8, addend: 0x0, symName: __ZNSt3__16vectorI4ItemNS_9allocatorIS1_EEE21_ConstructTransactionC2B7v160006ERS4_m, symObjAddr: 0x8604, symBinAddr: 0x10000E000, symSize: 0x4C }
  - { offsetInCU: 0x135EC, offset: 0x2FDDC, size: 0x8, addend: 0x0, symName: __ZNSt3__19allocatorI4ItemE9constructB7v160006IS1_JEEEvPT_DpOT0_, symObjAddr: 0x8650, symBinAddr: 0x10000E04C, symSize: 0x28 }
  - { offsetInCU: 0x1362F, offset: 0x2FE1F, size: 0x8, addend: 0x0, symName: __ZNSt3__16vectorI4ItemNS_9allocatorIS1_EEE21_ConstructTransactionD2B7v160006Ev, symObjAddr: 0x8678, symBinAddr: 0x10000E074, symSize: 0x20 }
  - { offsetInCU: 0x13658, offset: 0x2FE48, size: 0x8, addend: 0x0, symName: __ZNKSt3__16vectorI4ItemNS_9allocatorIS1_EEE8max_sizeEv, symObjAddr: 0x8698, symBinAddr: 0x10000E094, symSize: 0x60 }
  - { offsetInCU: 0x13680, offset: 0x2FE70, size: 0x8, addend: 0x0, symName: __ZNKSt3__16vectorI4ItemNS_9allocatorIS1_EEE20__throw_length_errorB7v160006Ev, symObjAddr: 0x86F8, symBinAddr: 0x10000E0F4, symSize: 0x1C }
  - { offsetInCU: 0x136B2, offset: 0x2FEA2, size: 0x8, addend: 0x0, symName: __ZNSt3__116allocator_traitsINS_9allocatorI4ItemEEE8max_sizeB7v160006IS3_vEEmRKS3_, symObjAddr: 0x8714, symBinAddr: 0x10000E110, symSize: 0x24 }
  - { offsetInCU: 0x136DF, offset: 0x2FECF, size: 0x8, addend: 0x0, symName: __ZNKSt3__16vectorI4ItemNS_9allocatorIS1_EEE7__allocB7v160006Ev, symObjAddr: 0x8738, symBinAddr: 0x10000E134, symSize: 0x28 }
  - { offsetInCU: 0x13706, offset: 0x2FEF6, size: 0x8, addend: 0x0, symName: __ZNKSt3__19allocatorI4ItemE8max_sizeB7v160006Ev, symObjAddr: 0x8760, symBinAddr: 0x10000E15C, symSize: 0x20 }
  - { offsetInCU: 0x1372B, offset: 0x2FF1B, size: 0x8, addend: 0x0, symName: __ZNKSt3__117__compressed_pairIP4ItemNS_9allocatorIS1_EEE6secondB7v160006Ev, symObjAddr: 0x8780, symBinAddr: 0x10000E17C, symSize: 0x24 }
  - { offsetInCU: 0x13752, offset: 0x2FF42, size: 0x8, addend: 0x0, symName: __ZNKSt3__122__compressed_pair_elemINS_9allocatorI4ItemEELi1ELb1EE5__getB7v160006Ev, symObjAddr: 0x87A4, symBinAddr: 0x10000E1A0, symSize: 0x14 }
  - { offsetInCU: 0x13778, offset: 0x2FF68, size: 0x8, addend: 0x0, symName: __ZNSt3__114__split_bufferI4ItemRNS_9allocatorIS1_EEEC2EmmS4_, symObjAddr: 0x87B8, symBinAddr: 0x10000E1B4, symSize: 0xE0 }
  - { offsetInCU: 0x137EC, offset: 0x2FFDC, size: 0x8, addend: 0x0, symName: __ZNSt3__117__compressed_pairIP4ItemRNS_9allocatorIS1_EEEC1B7v160006IDnS5_EEOT_OT0_, symObjAddr: 0x8898, symBinAddr: 0x10000E294, symSize: 0x3C }
  - { offsetInCU: 0x13843, offset: 0x30033, size: 0x8, addend: 0x0, symName: __ZNSt3__114__split_bufferI4ItemRNS_9allocatorIS1_EEE7__allocB7v160006Ev, symObjAddr: 0x8914, symBinAddr: 0x10000E310, symSize: 0x28 }
  - { offsetInCU: 0x13869, offset: 0x30059, size: 0x8, addend: 0x0, symName: __ZNSt3__114__split_bufferI4ItemRNS_9allocatorIS1_EEE9__end_capB7v160006Ev, symObjAddr: 0x893C, symBinAddr: 0x10000E338, symSize: 0x28 }
  - { offsetInCU: 0x13890, offset: 0x30080, size: 0x8, addend: 0x0, symName: __ZNSt3__117__compressed_pairIP4ItemRNS_9allocatorIS1_EEEC2B7v160006IDnS5_EEOT_OT0_, symObjAddr: 0x8964, symBinAddr: 0x10000E360, symSize: 0x48 }
  - { offsetInCU: 0x138E8, offset: 0x300D8, size: 0x8, addend: 0x0, symName: __ZNSt3__122__compressed_pair_elemIRNS_9allocatorI4ItemEELi1ELb0EEC2B7v160006IS4_vEEOT_, symObjAddr: 0x89AC, symBinAddr: 0x10000E3A8, symSize: 0x20 }
  - { offsetInCU: 0x13929, offset: 0x30119, size: 0x8, addend: 0x0, symName: __ZNSt3__19allocatorI4ItemE8allocateB7v160006Em, symObjAddr: 0x89CC, symBinAddr: 0x10000E3C8, symSize: 0x5C }
  - { offsetInCU: 0x1395D, offset: 0x3014D, size: 0x8, addend: 0x0, symName: __ZNSt3__117__compressed_pairIP4ItemRNS_9allocatorIS1_EEE6secondB7v160006Ev, symObjAddr: 0x8A28, symBinAddr: 0x10000E424, symSize: 0x28 }
  - { offsetInCU: 0x13984, offset: 0x30174, size: 0x8, addend: 0x0, symName: __ZNSt3__122__compressed_pair_elemIRNS_9allocatorI4ItemEELi1ELb0EE5__getB7v160006Ev, symObjAddr: 0x8A50, symBinAddr: 0x10000E44C, symSize: 0x18 }
  - { offsetInCU: 0x139A9, offset: 0x30199, size: 0x8, addend: 0x0, symName: __ZNSt3__117__compressed_pairIP4ItemRNS_9allocatorIS1_EEE5firstB7v160006Ev, symObjAddr: 0x8A68, symBinAddr: 0x10000E464, symSize: 0x24 }
  - { offsetInCU: 0x139DA, offset: 0x301CA, size: 0x8, addend: 0x0, symName: __ZNSt3__114__split_bufferI4ItemRNS_9allocatorIS1_EEE21_ConstructTransactionC1B7v160006EPPS1_m, symObjAddr: 0x8A8C, symBinAddr: 0x10000E488, symSize: 0x3C }
  - { offsetInCU: 0x13A20, offset: 0x30210, size: 0x8, addend: 0x0, symName: __ZNSt3__114__split_bufferI4ItemRNS_9allocatorIS1_EEE21_ConstructTransactionD1B7v160006Ev, symObjAddr: 0x8AC8, symBinAddr: 0x10000E4C4, symSize: 0x2C }
  - { offsetInCU: 0x13A4A, offset: 0x3023A, size: 0x8, addend: 0x0, symName: __ZNSt3__114__split_bufferI4ItemRNS_9allocatorIS1_EEE21_ConstructTransactionC2B7v160006EPPS1_m, symObjAddr: 0x8AF4, symBinAddr: 0x10000E4F0, symSize: 0x4C }
  - { offsetInCU: 0x13A90, offset: 0x30280, size: 0x8, addend: 0x0, symName: __ZNSt3__114__split_bufferI4ItemRNS_9allocatorIS1_EEE21_ConstructTransactionD2B7v160006Ev, symObjAddr: 0x8B40, symBinAddr: 0x10000E53C, symSize: 0x20 }
  - { offsetInCU: 0x13ABA, offset: 0x302AA, size: 0x8, addend: 0x0, symName: __ZNSt3__116reverse_iteratorIP4ItemEC1B7v160006ES2_, symObjAddr: 0x8C8C, symBinAddr: 0x10000E688, symSize: 0x34 }
  - { offsetInCU: 0x13AF2, offset: 0x302E2, size: 0x8, addend: 0x0, symName: __ZNKSt3__116reverse_iteratorIP4ItemE4baseB7v160006Ev, symObjAddr: 0x8CC0, symBinAddr: 0x10000E6BC, symSize: 0x18 }
  - { offsetInCU: 0x13B17, offset: 0x30307, size: 0x8, addend: 0x0, symName: __ZNKSt3__16vectorI4ItemNS_9allocatorIS1_EEE14__annotate_newB7v160006Em, symObjAddr: 0x8D14, symBinAddr: 0x10000E710, symSize: 0xC8 }
  - { offsetInCU: 0x13B4D, offset: 0x3033D, size: 0x8, addend: 0x0, symName: __ZNSt3__129_AllocatorDestroyRangeReverseINS_9allocatorI4ItemEENS_16reverse_iteratorIPS2_EEEC1B7v160006ERS3_RS6_S9_, symObjAddr: 0x8E38, symBinAddr: 0x10000E834, symSize: 0x44 }
  - { offsetInCU: 0x13BA4, offset: 0x30394, size: 0x8, addend: 0x0, symName: __ZNSt3__116allocator_traitsINS_9allocatorI4ItemEEE9constructB7v160006IS2_JRKS2_EvEEvRS3_PT_DpOT0_, symObjAddr: 0x8EC4, symBinAddr: 0x10000E8C0, symSize: 0x34 }
  - { offsetInCU: 0x13BFB, offset: 0x303EB, size: 0x8, addend: 0x0, symName: __ZNKSt3__116reverse_iteratorIP4ItemEdeB7v160006Ev, symObjAddr: 0x8F1C, symBinAddr: 0x10000E918, symSize: 0x28 }
  - { offsetInCU: 0x13C2F, offset: 0x3041F, size: 0x8, addend: 0x0, symName: __ZNSt3__116reverse_iteratorIP4ItemEppB7v160006Ev, symObjAddr: 0x8F44, symBinAddr: 0x10000E940, symSize: 0x20 }
  - { offsetInCU: 0x13C55, offset: 0x30445, size: 0x8, addend: 0x0, symName: __ZNSt3__128__exception_guard_exceptionsINS_29_AllocatorDestroyRangeReverseINS_9allocatorI4ItemEENS_16reverse_iteratorIPS3_EEEEE10__completeB7v160006Ev, symObjAddr: 0x8F64, symBinAddr: 0x10000E960, symSize: 0x1C }
  - { offsetInCU: 0x13C7B, offset: 0x3046B, size: 0x8, addend: 0x0, symName: __ZNSt3__128__exception_guard_exceptionsINS_29_AllocatorDestroyRangeReverseINS_9allocatorI4ItemEENS_16reverse_iteratorIPS3_EEEEED1B7v160006Ev, symObjAddr: 0x8F80, symBinAddr: 0x10000E97C, symSize: 0x2C }
  - { offsetInCU: 0x13CA5, offset: 0x30495, size: 0x8, addend: 0x0, symName: __ZNSt3__128__exception_guard_exceptionsINS_29_AllocatorDestroyRangeReverseINS_9allocatorI4ItemEENS_16reverse_iteratorIPS3_EEEEEC1B7v160006ES8_, symObjAddr: 0x8FAC, symBinAddr: 0x10000E9A8, symSize: 0x34 }
  - { offsetInCU: 0x13CDE, offset: 0x304CE, size: 0x8, addend: 0x0, symName: __ZNSt3__128__exception_guard_exceptionsINS_29_AllocatorDestroyRangeReverseINS_9allocatorI4ItemEENS_16reverse_iteratorIPS3_EEEEEC2B7v160006ES8_, symObjAddr: 0x8FE0, symBinAddr: 0x10000E9DC, symSize: 0x30 }
  - { offsetInCU: 0x13D17, offset: 0x30507, size: 0x8, addend: 0x0, symName: __ZNSt3__129_AllocatorDestroyRangeReverseINS_9allocatorI4ItemEENS_16reverse_iteratorIPS2_EEEC2B7v160006ERS3_RS6_S9_, symObjAddr: 0x9010, symBinAddr: 0x10000EA0C, symSize: 0x38 }
  - { offsetInCU: 0x13D6D, offset: 0x3055D, size: 0x8, addend: 0x0, symName: __ZNSt3__19allocatorI4ItemE9constructB7v160006IS1_JRKS1_EEEvPT_DpOT0_, symObjAddr: 0x9048, symBinAddr: 0x10000EA44, symSize: 0x30 }
  - { offsetInCU: 0x13DCA, offset: 0x305BA, size: 0x8, addend: 0x0, symName: __ZNSt3__119__to_address_helperINS_16reverse_iteratorIP4ItemEEvE6__callB7v160006ERKS4_, symObjAddr: 0x9078, symBinAddr: 0x10000EA74, symSize: 0x38 }
  - { offsetInCU: 0x13DEC, offset: 0x305DC, size: 0x8, addend: 0x0, symName: __ZNKSt3__116reverse_iteratorIP4ItemEptB7v160006Ev, symObjAddr: 0x90B0, symBinAddr: 0x10000EAAC, symSize: 0x24 }
  - { offsetInCU: 0x13E13, offset: 0x30603, size: 0x8, addend: 0x0, symName: __ZNSt3__128__exception_guard_exceptionsINS_29_AllocatorDestroyRangeReverseINS_9allocatorI4ItemEENS_16reverse_iteratorIPS3_EEEEED2B7v160006Ev, symObjAddr: 0x90D4, symBinAddr: 0x10000EAD0, symSize: 0x50 }
  - { offsetInCU: 0x13E3C, offset: 0x3062C, size: 0x8, addend: 0x0, symName: __ZNKSt3__129_AllocatorDestroyRangeReverseINS_9allocatorI4ItemEENS_16reverse_iteratorIPS2_EEEclB7v160006Ev, symObjAddr: 0x9124, symBinAddr: 0x10000EB20, symSize: 0xB4 }
  - { offsetInCU: 0x13E64, offset: 0x30654, size: 0x8, addend: 0x0, symName: __ZNSt3__116reverse_iteratorINS0_IP4ItemEEEC1B7v160006ES3_, symObjAddr: 0x9248, symBinAddr: 0x10000EC44, symSize: 0x3C }
  - { offsetInCU: 0x13E9B, offset: 0x3068B, size: 0x8, addend: 0x0, symName: __ZNSt3__116reverse_iteratorINS0_IP4ItemEEEppB7v160006Ev, symObjAddr: 0x9308, symBinAddr: 0x10000ED04, symSize: 0x30 }
  - { offsetInCU: 0x13EC2, offset: 0x306B2, size: 0x8, addend: 0x0, symName: __ZNKSt3__116reverse_iteratorINS0_IP4ItemEEE4baseB7v160006Ev, symObjAddr: 0x9338, symBinAddr: 0x10000ED34, symSize: 0x24 }
  - { offsetInCU: 0x13EEE, offset: 0x306DE, size: 0x8, addend: 0x0, symName: __ZNSt3__119__to_address_helperINS_16reverse_iteratorINS1_IP4ItemEEEEvE6__callB7v160006ERKS5_, symObjAddr: 0x935C, symBinAddr: 0x10000ED58, symSize: 0x38 }
  - { offsetInCU: 0x13F10, offset: 0x30700, size: 0x8, addend: 0x0, symName: __ZNKSt3__116reverse_iteratorINS0_IP4ItemEEEptB7v160006Ev, symObjAddr: 0x9394, symBinAddr: 0x10000ED90, symSize: 0x24 }
  - { offsetInCU: 0x13F36, offset: 0x30726, size: 0x8, addend: 0x0, symName: __ZNKSt3__116reverse_iteratorINS0_IP4ItemEEEdeB7v160006Ev, symObjAddr: 0x93B8, symBinAddr: 0x10000EDB4, symSize: 0x34 }
  - { offsetInCU: 0x13F6B, offset: 0x3075B, size: 0x8, addend: 0x0, symName: __ZNSt3__116reverse_iteratorIP4ItemEmmB7v160006Ev, symObjAddr: 0x93EC, symBinAddr: 0x10000EDE8, symSize: 0x20 }
  - { offsetInCU: 0x13F91, offset: 0x30781, size: 0x8, addend: 0x0, symName: __ZNSt3__116reverse_iteratorINS0_IP4ItemEEEC2B7v160006ES3_, symObjAddr: 0x940C, symBinAddr: 0x10000EE08, symSize: 0x2C }
  - { offsetInCU: 0x13FC9, offset: 0x307B9, size: 0x8, addend: 0x0, symName: __ZNSt3__116reverse_iteratorIP4ItemEC2B7v160006ES2_, symObjAddr: 0x9438, symBinAddr: 0x10000EE34, symSize: 0x28 }
  - { offsetInCU: 0x14001, offset: 0x307F1, size: 0x8, addend: 0x0, symName: __ZNSt3__114__split_bufferI4ItemRNS_9allocatorIS1_EEED2Ev, symObjAddr: 0x9460, symBinAddr: 0x10000EE5C, symSize: 0x8C }
  - { offsetInCU: 0x1402C, offset: 0x3081C, size: 0x8, addend: 0x0, symName: __ZNSt3__114__split_bufferI4ItemRNS_9allocatorIS1_EEE5clearB7v160006Ev, symObjAddr: 0x94EC, symBinAddr: 0x10000EEE8, symSize: 0x28 }
  - { offsetInCU: 0x14052, offset: 0x30842, size: 0x8, addend: 0x0, symName: __ZNKSt3__114__split_bufferI4ItemRNS_9allocatorIS1_EEE8capacityB7v160006Ev, symObjAddr: 0x9514, symBinAddr: 0x10000EF10, symSize: 0x40 }
  - { offsetInCU: 0x14078, offset: 0x30868, size: 0x8, addend: 0x0, symName: __ZNSt3__114__split_bufferI4ItemRNS_9allocatorIS1_EEE17__destruct_at_endB7v160006EPS1_, symObjAddr: 0x9554, symBinAddr: 0x10000EF50, symSize: 0x2C }
  - { offsetInCU: 0x140AC, offset: 0x3089C, size: 0x8, addend: 0x0, symName: __ZNSt3__114__split_bufferI4ItemRNS_9allocatorIS1_EEE17__destruct_at_endB7v160006EPS1_NS_17integral_constantIbLb0EEE, symObjAddr: 0x9580, symBinAddr: 0x10000EF7C, symSize: 0x80 }
  - { offsetInCU: 0x140ED, offset: 0x308DD, size: 0x8, addend: 0x0, symName: __ZNKSt3__114__split_bufferI4ItemRNS_9allocatorIS1_EEE9__end_capB7v160006Ev, symObjAddr: 0x9600, symBinAddr: 0x10000EFFC, symSize: 0x28 }
  - { offsetInCU: 0x14113, offset: 0x30903, size: 0x8, addend: 0x0, symName: __ZNKSt3__117__compressed_pairIP4ItemRNS_9allocatorIS1_EEE5firstB7v160006Ev, symObjAddr: 0x9628, symBinAddr: 0x10000F024, symSize: 0x24 }
  - { offsetInCU: 0x1413A, offset: 0x3092A, size: 0x8, addend: 0x0, symName: __ZNSt3__16vectorI4ItemNS_9allocatorIS1_EEE27__invalidate_iterators_pastB7v160006EPS1_, symObjAddr: 0x964C, symBinAddr: 0x10000F048, symSize: 0x14 }
  - { offsetInCU: 0x14170, offset: 0x30960, size: 0x8, addend: 0x0, symName: __ZNKSt3__16vectorI4ItemNS_9allocatorIS1_EEE17__annotate_shrinkB7v160006Em, symObjAddr: 0x9660, symBinAddr: 0x10000F05C, symSize: 0xD0 }
  - { offsetInCU: 0x141A5, offset: 0x30995, size: 0x8, addend: 0x0, symName: __ZNKSt3__16vectorI4ItemNS_9allocatorIS1_EEE20__throw_out_of_rangeB7v160006Ev, symObjAddr: 0x9730, symBinAddr: 0x10000F12C, symSize: 0x1C }
  - { offsetInCU: 0x141CC, offset: 0x309BC, size: 0x8, addend: 0x0, symName: __ZNSt12out_of_rangeC1B7v160006EPKc, symObjAddr: 0x97B0, symBinAddr: 0x10000F1AC, symSize: 0x34 }
  - { offsetInCU: 0x14204, offset: 0x309F4, size: 0x8, addend: 0x0, symName: __ZNSt12out_of_rangeC2B7v160006EPKc, symObjAddr: 0x97E4, symBinAddr: 0x10000F1E0, symSize: 0x4C }
  - { offsetInCU: 0x3F, offset: 0x30C6D, size: 0x8, addend: 0x0, symName: __ZL11ITEM_FIELDS, symObjAddr: 0x2F528, symBinAddr: 0x1000201F8, symSize: 0x0 }
  - { offsetInCU: 0x3E49, offset: 0x34A77, size: 0x8, addend: 0x0, symName: __ZNSt3__1ltB7v160006IcNS_11char_traitsIcEENS_9allocatorIcEEEEbRKNS_12basic_stringIT_T0_T1_EESB_, symObjAddr: 0x6C4, symBinAddr: 0x10000FACC, symSize: 0x38 }
  - { offsetInCU: 0x3EC5, offset: 0x34AF3, size: 0x8, addend: 0x0, symName: __ZNSt3__118__constexpr_memcmpB7v160006IcEEiPKT_S3_m, symObjAddr: 0x2C38, symBinAddr: 0x100010358, symSize: 0x34 }
  - { offsetInCU: 0x3FD8, offset: 0x34C06, size: 0x8, addend: 0x0, symName: __ZL8ITEM_MIN, symObjAddr: 0x2F540, symBinAddr: 0x100020210, symSize: 0x0 }
  - { offsetInCU: 0x40EC, offset: 0x34D1A, size: 0x8, addend: 0x0, symName: __ZL8ITEM_MAX, symObjAddr: 0x2F588, symBinAddr: 0x100020258, symSize: 0x0 }
  - { offsetInCU: 0x5F08, offset: 0x36B36, size: 0x8, addend: 0x0, symName: __ZN4ItemC1ENSt3__112basic_stringIcNS0_11char_traitsIcEENS0_9allocatorIcEEEES6_S6_, symObjAddr: 0x9C, symBinAddr: 0x10000F4D0, symSize: 0x44 }
  - { offsetInCU: 0x5F61, offset: 0x36B8F, size: 0x8, addend: 0x0, symName: __ZN4ItemC2ENSt3__112basic_stringIcNS0_11char_traitsIcEENS0_9allocatorIcEEEES6_S6_, symObjAddr: 0x10C, symBinAddr: 0x10000F514, symSize: 0x110 }
  - { offsetInCU: 0x5FBA, offset: 0x36BE8, size: 0x8, addend: 0x0, symName: __ZNSt3__112basic_stringIcNS_11char_traitsIcEENS_9allocatorIcEEEC1B7v160006Ev, symObjAddr: 0x21C, symBinAddr: 0x10000F624, symSize: 0x2C }
  - { offsetInCU: 0x5FE4, offset: 0x36C12, size: 0x8, addend: 0x0, symName: __ZN4ItemC2ERKS_, symObjAddr: 0x248, symBinAddr: 0x10000F650, symSize: 0x120 }
  - { offsetInCU: 0x603B, offset: 0x36C69, size: 0x8, addend: 0x0, symName: __ZN4ItemC1ERKS_, symObjAddr: 0x368, symBinAddr: 0x10000F770, symSize: 0x34 }
  - { offsetInCU: 0x6075, offset: 0x36CA3, size: 0x8, addend: 0x0, symName: __ZN4ItemC2Ev, symObjAddr: 0x39C, symBinAddr: 0x10000F7A4, symSize: 0x140 }
  - { offsetInCU: 0x60A1, offset: 0x36CCF, size: 0x8, addend: 0x0, symName: __ZNSt3__112basic_stringIcNS_11char_traitsIcEENS_9allocatorIcEEEaSB7v160006EOS5_, symObjAddr: 0x4DC, symBinAddr: 0x10000F8E4, symSize: 0x34 }
  - { offsetInCU: 0x60D6, offset: 0x36D04, size: 0x8, addend: 0x0, symName: __ZN4ItemC1Ev, symObjAddr: 0x510, symBinAddr: 0x10000F918, symSize: 0x2C }
  - { offsetInCU: 0x6102, offset: 0x36D30, size: 0x8, addend: 0x0, symName: __ZN4ItemC2Ej, symObjAddr: 0x53C, symBinAddr: 0x10000F944, symSize: 0x124 }
  - { offsetInCU: 0x6150, offset: 0x36D7E, size: 0x8, addend: 0x0, symName: __ZN4ItemC1Ej, symObjAddr: 0x660, symBinAddr: 0x10000FA68, symSize: 0x34 }
  - { offsetInCU: 0x618B, offset: 0x36DB9, size: 0x8, addend: 0x0, symName: __ZNK4ItemltERKS_, symObjAddr: 0x694, symBinAddr: 0x10000FA9C, symSize: 0x30 }
  - { offsetInCU: 0x61C1, offset: 0x36DEF, size: 0x8, addend: 0x0, symName: __ZNK4Item13GetItemStringEv, symObjAddr: 0x6FC, symBinAddr: 0x10000FB04, symSize: 0x14 }
  - { offsetInCU: 0x62FC, offset: 0x36F2A, size: 0x8, addend: 0x0, symName: __ZN4PlanC2Ej, symObjAddr: 0x710, symBinAddr: 0x10000FB18, symSize: 0x74 }
  - { offsetInCU: 0x6353, offset: 0x36F81, size: 0x8, addend: 0x0, symName: __ZN4PlanD2Ev, symObjAddr: 0x784, symBinAddr: 0x10000FB8C, symSize: 0x6C }
  - { offsetInCU: 0x6394, offset: 0x36FC2, size: 0x8, addend: 0x0, symName: __ZN4PlanD1Ev, symObjAddr: 0x7FC, symBinAddr: 0x10000FBF8, symSize: 0x14 }
  - { offsetInCU: 0x63C0, offset: 0x36FEE, size: 0x8, addend: 0x0, symName: __ZN4PlanD0Ev, symObjAddr: 0x810, symBinAddr: 0x10000FC0C, symSize: 0xC }
  - { offsetInCU: 0x63EC, offset: 0x3701A, size: 0x8, addend: 0x0, symName: __ZNK4Plan7GetSizeEv, symObjAddr: 0x81C, symBinAddr: 0x10000FC18, symSize: 0x18 }
  - { offsetInCU: 0x6413, offset: 0x37041, size: 0x8, addend: 0x0, symName: __ZN8IteratorC2Ej, symObjAddr: 0x834, symBinAddr: 0x10000FC30, symSize: 0xC4 }
  - { offsetInCU: 0x6461, offset: 0x3708F, size: 0x8, addend: 0x0, symName: __ZN8IteratorD2Ev, symObjAddr: 0x9EC, symBinAddr: 0x10000FCF4, symSize: 0x78 }
  - { offsetInCU: 0x64A2, offset: 0x370D0, size: 0x8, addend: 0x0, symName: __ZN8IteratorD1Ev, symObjAddr: 0xA64, symBinAddr: 0x10000FD6C, symSize: 0x14 }
  - { offsetInCU: 0x64CE, offset: 0x370FC, size: 0x8, addend: 0x0, symName: __ZN8IteratorD0Ev, symObjAddr: 0xA78, symBinAddr: 0x10000FD80, symSize: 0xC }
  - { offsetInCU: 0x64FA, offset: 0x37128, size: 0x8, addend: 0x0, symName: __ZN8Iterator3runEv, symObjAddr: 0xA84, symBinAddr: 0x10000FD8C, symSize: 0xD0 }
  - { offsetInCU: 0x653F, offset: 0x3716D, size: 0x8, addend: 0x0, symName: __ZN8Iterator10GetRecordsEPPNSt3__16vectorI4ItemNS0_9allocatorIS2_EEEEPPj, symObjAddr: 0xB54, symBinAddr: 0x10000FE5C, symSize: 0x38 }
  - { offsetInCU: 0x6583, offset: 0x371B1, size: 0x8, addend: 0x0, symName: __ZNK8Iterator7GetSizeEv, symObjAddr: 0xB8C, symBinAddr: 0x10000FE94, symSize: 0x18 }
  - { offsetInCU: 0x65AA, offset: 0x371D8, size: 0x8, addend: 0x0, symName: __ZNSt3__112basic_stringIcNS_11char_traitsIcEENS_9allocatorIcEEEC2B7v160006Ev, symObjAddr: 0xC08, symBinAddr: 0x10000FEAC, symSize: 0x54 }
  - { offsetInCU: 0x65D4, offset: 0x37202, size: 0x8, addend: 0x0, symName: __ZNSt3__112basic_stringIcNS_11char_traitsIcEENS_9allocatorIcEEE13__move_assignB7v160006ERS5_NS_17integral_constantIbLb1EEE, symObjAddr: 0xDDC, symBinAddr: 0x10000FF00, symSize: 0xC8 }
  - { offsetInCU: 0x6618, offset: 0x37246, size: 0x8, addend: 0x0, symName: __ZNSt3__116allocator_traitsINS_9allocatorIcEEE10deallocateB7v160006ERS2_Pcm, symObjAddr: 0xEDC, symBinAddr: 0x10000FFC8, symSize: 0x34 }
  - { offsetInCU: 0x6659, offset: 0x37287, size: 0x8, addend: 0x0, symName: __ZNKSt3__112basic_stringIcNS_11char_traitsIcEENS_9allocatorIcEEE14__get_long_capB7v160006Ev, symObjAddr: 0xF5C, symBinAddr: 0x10000FFFC, symSize: 0x30 }
  - { offsetInCU: 0x667F, offset: 0x372AD, size: 0x8, addend: 0x0, symName: __ZNSt3__112basic_stringIcNS_11char_traitsIcEENS_9allocatorIcEEE19__move_assign_allocB7v160006ERS5_, symObjAddr: 0xF8C, symBinAddr: 0x10001002C, symSize: 0x2C }
  - { offsetInCU: 0x66B5, offset: 0x372E3, size: 0x8, addend: 0x0, symName: __ZNSt3__111char_traitsIcE6assignERcRKc, symObjAddr: 0x1030, symBinAddr: 0x100010058, symSize: 0x24 }
  - { offsetInCU: 0x66E5, offset: 0x37313, size: 0x8, addend: 0x0, symName: __ZNSt3__19allocatorIcE10deallocateB7v160006EPcm, symObjAddr: 0x10B4, symBinAddr: 0x10001007C, symSize: 0x40 }
  - { offsetInCU: 0x6727, offset: 0x37355, size: 0x8, addend: 0x0, symName: __ZNSt3__112basic_stringIcNS_11char_traitsIcEENS_9allocatorIcEEE19__move_assign_allocB7v160006ERS5_NS_17integral_constantIbLb1EEE, symObjAddr: 0x11A8, symBinAddr: 0x1000100BC, symSize: 0x38 }
  - { offsetInCU: 0x6783, offset: 0x373B1, size: 0x8, addend: 0x0, symName: __ZNKSt3__112basic_stringIcNS_11char_traitsIcEENS_9allocatorIcEEE7compareB7v160006ERKS5_, symObjAddr: 0x28FC, symBinAddr: 0x1000100F4, symSize: 0x4C }
  - { offsetInCU: 0x67BA, offset: 0x373E8, size: 0x8, addend: 0x0, symName: __ZNKSt3__112basic_stringIcNS_11char_traitsIcEENS_9allocatorIcEEE7compareINS_17basic_string_viewIcS2_EEEENS_9enable_ifIXsr33__can_be_converted_to_string_viewIcS2_T_EE5valueEiE4typeERKSA_, symObjAddr: 0x2948, symBinAddr: 0x100010140, symSize: 0x12C }
  - { offsetInCU: 0x6837, offset: 0x37465, size: 0x8, addend: 0x0, symName: __ZNKSt3__112basic_stringIcNS_11char_traitsIcEENS_9allocatorIcEEEcvNS_17basic_string_viewIcS2_EEB7v160006Ev, symObjAddr: 0x2A74, symBinAddr: 0x10001026C, symSize: 0x50 }
  - { offsetInCU: 0x685E, offset: 0x3748C, size: 0x8, addend: 0x0, symName: __ZNKSt3__117basic_string_viewIcNS_11char_traitsIcEEE4sizeB7v160006Ev, symObjAddr: 0x2B18, symBinAddr: 0x1000102BC, symSize: 0x18 }
  - { offsetInCU: 0x6884, offset: 0x374B2, size: 0x8, addend: 0x0, symName: __ZNSt3__111char_traitsIcE7compareEPKcS3_m, symObjAddr: 0x2B30, symBinAddr: 0x1000102D4, symSize: 0x6C }
  - { offsetInCU: 0x68C3, offset: 0x374F1, size: 0x8, addend: 0x0, symName: __ZNKSt3__117basic_string_viewIcNS_11char_traitsIcEEE4dataB7v160006Ev, symObjAddr: 0x2BC4, symBinAddr: 0x100010340, symSize: 0x18 }
  - { offsetInCU: 0x68E8, offset: 0x37516, size: 0x8, addend: 0x0, symName: __ZNSt3__117basic_string_viewIcNS_11char_traitsIcEEEC1B7v160006EPKcm, symObjAddr: 0x2D38, symBinAddr: 0x10001038C, symSize: 0x3C }
  - { offsetInCU: 0x6931, offset: 0x3755F, size: 0x8, addend: 0x0, symName: __ZNSt3__117basic_string_viewIcNS_11char_traitsIcEEEC2B7v160006EPKcm, symObjAddr: 0x2D74, symBinAddr: 0x1000103C8, symSize: 0x2C }
  - { offsetInCU: 0x3F, offset: 0x37628, size: 0x8, addend: 0x0, symName: __ZL11ITEM_FIELDS, symObjAddr: 0x202E8, symBinAddr: 0x1000202A0, symSize: 0x0 }
  - { offsetInCU: 0x3392, offset: 0x3A97B, size: 0x8, addend: 0x0, symName: __ZNSt3__1gtB7v160006IcNS_11char_traitsIcEENS_9allocatorIcEEEEbRKNS_12basic_stringIT_T0_T1_EESB_, symObjAddr: 0x520, symBinAddr: 0x100010AB8, symSize: 0x30 }
  - { offsetInCU: 0x34A7, offset: 0x3AA90, size: 0x8, addend: 0x0, symName: __ZL8ITEM_MIN, symObjAddr: 0x20300, symBinAddr: 0x1000202B8, symSize: 0x0 }
  - { offsetInCU: 0x35A3, offset: 0x3AB8C, size: 0x8, addend: 0x0, symName: __ZL8ITEM_MAX, symObjAddr: 0x20348, symBinAddr: 0x100020300, symSize: 0x0 }
  - { offsetInCU: 0x533B, offset: 0x3C924, size: 0x8, addend: 0x0, symName: __ZN8TreeNodeC2EP4Itemii, symObjAddr: 0xC8, symBinAddr: 0x100010698, symSize: 0x3C }
  - { offsetInCU: 0x5391, offset: 0x3C97A, size: 0x8, addend: 0x0, symName: __ZN8TreeNodeC1EP4Itemii, symObjAddr: 0x104, symBinAddr: 0x1000106D4, symSize: 0x44 }
  - { offsetInCU: 0x53E7, offset: 0x3C9D0, size: 0x8, addend: 0x0, symName: __ZN8TreeNodeC2Ev, symObjAddr: 0x148, symBinAddr: 0x100010718, symSize: 0x2C }
  - { offsetInCU: 0x5413, offset: 0x3C9FC, size: 0x8, addend: 0x0, symName: __ZN8TreeNodeC1Ev, symObjAddr: 0x174, symBinAddr: 0x100010744, symSize: 0x2C }
  - { offsetInCU: 0x543F, offset: 0x3CA28, size: 0x8, addend: 0x0, symName: __ZN8TreeNodeD2Ev, symObjAddr: 0x1A0, symBinAddr: 0x100010770, symSize: 0x14 }
  - { offsetInCU: 0x546B, offset: 0x3CA54, size: 0x8, addend: 0x0, symName: __ZN8TreeNodeD1Ev, symObjAddr: 0x1B4, symBinAddr: 0x100010784, symSize: 0x2C }
  - { offsetInCU: 0x5497, offset: 0x3CA80, size: 0x8, addend: 0x0, symName: __ZNK8TreeNodeltERKS_, symObjAddr: 0x1E0, symBinAddr: 0x1000107B0, symSize: 0x184 }
  - { offsetInCU: 0x553F, offset: 0x3CB28, size: 0x8, addend: 0x0, symName: __ZNK8TreeNodegtERKS_, symObjAddr: 0x39C, symBinAddr: 0x100010934, symSize: 0x184 }
  - { offsetInCU: 0x55EC, offset: 0x3CBD5, size: 0x8, addend: 0x0, symName: __ZN9LoserTreeC2Ei, symObjAddr: 0x550, symBinAddr: 0x100010AE8, symSize: 0xE0 }
  - { offsetInCU: 0x5643, offset: 0x3CC2C, size: 0x8, addend: 0x0, symName: __ZN9LoserTreeC1Ei, symObjAddr: 0x630, symBinAddr: 0x100010BC8, symSize: 0x34 }
  - { offsetInCU: 0x567D, offset: 0x3CC66, size: 0x8, addend: 0x0, symName: __ZN9LoserTreeD2Ev, symObjAddr: 0x664, symBinAddr: 0x100010BFC, symSize: 0xCC }
  - { offsetInCU: 0x56C6, offset: 0x3CCAF, size: 0x8, addend: 0x0, symName: __ZN9LoserTreeD1Ev, symObjAddr: 0x730, symBinAddr: 0x100010CC8, symSize: 0x2C }
  - { offsetInCU: 0x56F2, offset: 0x3CCDB, size: 0x8, addend: 0x0, symName: __ZN9LoserTree5emptyEv, symObjAddr: 0x75C, symBinAddr: 0x100010CF4, symSize: 0x44 }
  - { offsetInCU: 0x571A, offset: 0x3CD03, size: 0x8, addend: 0x0, symName: __ZN9LoserTree3topEv, symObjAddr: 0x7A0, symBinAddr: 0x100010D38, symSize: 0x1C }
  - { offsetInCU: 0x5742, offset: 0x3CD2B, size: 0x8, addend: 0x0, symName: __ZN9LoserTree4pushEPK4ItemiiPKNSt3__112basic_stringIcNS3_11char_traitsIcEENS3_9allocatorIcEEEE, symObjAddr: 0x7BC, symBinAddr: 0x100010D54, symSize: 0xEC }
  - { offsetInCU: 0x57BE, offset: 0x3CDA7, size: 0x8, addend: 0x0, symName: __ZN9LoserTree6adjustEiPKNSt3__112basic_stringIcNS0_11char_traitsIcEENS0_9allocatorIcEEEE, symObjAddr: 0x8A8, symBinAddr: 0x100010E40, symSize: 0x180 }
  - { offsetInCU: 0x5849, offset: 0x3CE32, size: 0x8, addend: 0x0, symName: __Z4swapIP8TreeNodeEvRT_S3_, symObjAddr: 0xA28, symBinAddr: 0x100010FC0, symSize: 0x3C }
  - { offsetInCU: 0x5896, offset: 0x3CE7F, size: 0x8, addend: 0x0, symName: __ZN9LoserTree5resetEiPK4Item, symObjAddr: 0xA64, symBinAddr: 0x100010FFC, symSize: 0xA8 }
  - { offsetInCU: 0x26, offset: 0x3CF31, size: 0x8, addend: 0x0, symName: __Z24CalculateOffsetValueCodePKNSt3__112basic_stringIcNS_11char_traitsIcEENS_9allocatorIcEEEES7_, symObjAddr: 0x0, symBinAddr: 0x100011348, symSize: 0x118 }
  - { offsetInCU: 0x4603, offset: 0x4150E, size: 0x8, addend: 0x0, symName: __Z24CalculateOffsetValueCodePKNSt3__112basic_stringIcNS_11char_traitsIcEENS_9allocatorIcEEEES7_, symObjAddr: 0x0, symBinAddr: 0x100011348, symSize: 0x118 }
  - { offsetInCU: 0x4744, offset: 0x4164F, size: 0x8, addend: 0x0, symName: __ZNKSt3__112basic_stringIcNS_11char_traitsIcEENS_9allocatorIcEEE6lengthB7v160006Ev, symObjAddr: 0x144, symBinAddr: 0x100011460, symSize: 0x24 }
  - { offsetInCU: 0x3F, offset: 0x416CE, size: 0x8, addend: 0x0, symName: __ZL11ITEM_FIELDS, symObjAddr: 0x22510, symBinAddr: 0x100020348, symSize: 0x0 }
  - { offsetInCU: 0x3E14, offset: 0x454A3, size: 0x8, addend: 0x0, symName: __ZL8ITEM_MIN, symObjAddr: 0x22528, symBinAddr: 0x100020360, symSize: 0x0 }
  - { offsetInCU: 0x3F06, offset: 0x45595, size: 0x8, addend: 0x0, symName: __ZL8ITEM_MAX, symObjAddr: 0x22570, symBinAddr: 0x1000203A8, symSize: 0x0 }
  - { offsetInCU: 0x5E9C, offset: 0x4752B, size: 0x8, addend: 0x0, symName: __ZN8ScanPlanC2Eyj, symObjAddr: 0xC8, symBinAddr: 0x100011484, symSize: 0xB0 }
  - { offsetInCU: 0x5EF8, offset: 0x47587, size: 0x8, addend: 0x0, symName: __ZN8ScanPlanC1Eyj, symObjAddr: 0x178, symBinAddr: 0x100011534, symSize: 0x3C }
  - { offsetInCU: 0x5F40, offset: 0x475CF, size: 0x8, addend: 0x0, symName: __ZN8ScanPlanD2Ev, symObjAddr: 0x1B4, symBinAddr: 0x100011570, symSize: 0x74 }
  - { offsetInCU: 0x5F80, offset: 0x4760F, size: 0x8, addend: 0x0, symName: __ZN8ScanPlanD1Ev, symObjAddr: 0x234, symBinAddr: 0x1000115E4, symSize: 0x2C }
  - { offsetInCU: 0x5FAC, offset: 0x4763B, size: 0x8, addend: 0x0, symName: __ZN8ScanPlanD0Ev, symObjAddr: 0x260, symBinAddr: 0x100011610, symSize: 0x30 }
  - { offsetInCU: 0x5FD8, offset: 0x47667, size: 0x8, addend: 0x0, symName: __ZNK8ScanPlan4initEv, symObjAddr: 0x290, symBinAddr: 0x100011640, symSize: 0x94 }
  - { offsetInCU: 0x60D0, offset: 0x4775F, size: 0x8, addend: 0x0, symName: __ZN12ScanIteratorC1EPK8ScanPlan, symObjAddr: 0x324, symBinAddr: 0x1000116D4, symSize: 0x34 }
  - { offsetInCU: 0x610A, offset: 0x47799, size: 0x8, addend: 0x0, symName: __ZN12ScanIteratorC2EPK8ScanPlan, symObjAddr: 0x358, symBinAddr: 0x100011708, symSize: 0xE4 }
  - { offsetInCU: 0x6158, offset: 0x477E7, size: 0x8, addend: 0x0, symName: __ZN12ScanIteratorD2Ev, symObjAddr: 0x43C, symBinAddr: 0x1000117EC, symSize: 0xD4 }
  - { offsetInCU: 0x6198, offset: 0x47827, size: 0x8, addend: 0x0, symName: __ZN12ScanIteratorD1Ev, symObjAddr: 0x510, symBinAddr: 0x1000118C0, symSize: 0x2C }
  - { offsetInCU: 0x61C4, offset: 0x47853, size: 0x8, addend: 0x0, symName: __ZN12ScanIteratorD0Ev, symObjAddr: 0x53C, symBinAddr: 0x1000118EC, symSize: 0x30 }
  - { offsetInCU: 0x61F0, offset: 0x4787F, size: 0x8, addend: 0x0, symName: __ZN12ScanIterator4nextEv, symObjAddr: 0x56C, symBinAddr: 0x10001191C, symSize: 0x218 }
  - { offsetInCU: 0x625A, offset: 0x478E9, size: 0x8, addend: 0x0, symName: __ZN12ScanIterator17GenerateOneRecordEv, symObjAddr: 0x784, symBinAddr: 0x100011B34, symSize: 0x19C }
  - { offsetInCU: 0x62BC, offset: 0x4794B, size: 0x8, addend: 0x0, symName: __ZN12ScanIterator16GeneratRandomStrEi, symObjAddr: 0xA34, symBinAddr: 0x100011CD0, symSize: 0x104 }
  - { offsetInCU: 0x3F, offset: 0x47A1F, size: 0x8, addend: 0x0, symName: __ZL11ITEM_FIELDS, symObjAddr: 0x4AC50, symBinAddr: 0x1000203F0, symSize: 0x0 }
  - { offsetInCU: 0x3A65, offset: 0x4B445, size: 0x8, addend: 0x0, symName: __ZNSt3__16chronogtB7v160006IxNS_5ratioILl1ELl1000000EEExS3_EEbRKNS0_8durationIT_T0_EERKNS4_IT1_T2_EE, symObjAddr: 0x2980, symBinAddr: 0x100012FB0, symSize: 0x30 }
  - { offsetInCU: 0x3AC6, offset: 0x4B4A6, size: 0x8, addend: 0x0, symName: __ZNSt3__16chronoltB7v160006IxNS_5ratioILl1ELl1000000EEEeNS2_ILl1ELl1EEEEEbRKNS0_8durationIT_T0_EERKNS5_IT1_T2_EE, symObjAddr: 0x29EC, symBinAddr: 0x10001301C, symSize: 0x34 }
  - { offsetInCU: 0x3B27, offset: 0x4B507, size: 0x8, addend: 0x0, symName: __ZNSt3__16chrono13duration_castB7v160006INS0_8durationIxNS_5ratioILl1ELl1000000000EEEEExNS3_ILl1ELl1000000EEEEENS_9enable_ifIXsr13__is_durationIT_EE5valueES8_E4typeERKNS2_IT0_T1_EE, symObjAddr: 0x2A20, symBinAddr: 0x100013050, symSize: 0x30 }
  - { offsetInCU: 0x3B6E, offset: 0x4B54E, size: 0x8, addend: 0x0, symName: __ZNSt3__16chronoltB7v160006IxNS_5ratioILl1ELl1000000000EEExNS2_ILl1ELl1000000EEEEEbRKNS0_8durationIT_T0_EERKNS5_IT1_T2_EE, symObjAddr: 0x2A50, symBinAddr: 0x100013080, symSize: 0x34 }
  - { offsetInCU: 0x3BCF, offset: 0x4B5AF, size: 0x8, addend: 0x0, symName: __ZNSt3__16chronoltB7v160006IxNS_5ratioILl1ELl1000000EEExS3_EEbRKNS0_8durationIT_T0_EERKNS4_IT1_T2_EE, symObjAddr: 0x2AE0, symBinAddr: 0x100013110, symSize: 0x34 }
  - { offsetInCU: 0x3CAD, offset: 0x4B68D, size: 0x8, addend: 0x0, symName: __ZNSt3__16chrono13duration_castB7v160006INS0_8durationIeNS_5ratioILl1ELl1000000EEEEExS4_EENS_9enable_ifIXsr13__is_durationIT_EE5valueES7_E4typeERKNS2_IT0_T1_EE, symObjAddr: 0x2D34, symBinAddr: 0x100013364, symSize: 0x30 }
  - { offsetInCU: 0x3D3F, offset: 0x4B71F, size: 0x8, addend: 0x0, symName: __ZNSt3__16chrono13duration_castB7v160006INS0_8durationIeNS_5ratioILl1ELl1000000EEEEEeNS3_ILl1ELl1EEEEENS_9enable_ifIXsr13__is_durationIT_EE5valueES8_E4typeERKNS2_IT0_T1_EE, symObjAddr: 0x2E54, symBinAddr: 0x100013484, symSize: 0x30 }
  - { offsetInCU: 0x3D86, offset: 0x4B766, size: 0x8, addend: 0x0, symName: __ZNSt3__16chronogtB7v160006IxNS_5ratioILl1ELl1000EEExS3_EEbRKNS0_8durationIT_T0_EERKNS4_IT1_T2_EE, symObjAddr: 0x4618, symBinAddr: 0x1000146CC, symSize: 0x30 }
  - { offsetInCU: 0x3DE7, offset: 0x4B7C7, size: 0x8, addend: 0x0, symName: __ZNSt3__16chronoltB7v160006IxNS_5ratioILl1ELl1000EEEeNS2_ILl1ELl1EEEEEbRKNS0_8durationIT_T0_EERKNS5_IT1_T2_EE, symObjAddr: 0x4684, symBinAddr: 0x100014738, symSize: 0x34 }
  - { offsetInCU: 0x3E48, offset: 0x4B828, size: 0x8, addend: 0x0, symName: __ZNSt3__16chrono13duration_castB7v160006INS0_8durationIxNS_5ratioILl1ELl1000000000EEEEExNS3_ILl1ELl1000EEEEENS_9enable_ifIXsr13__is_durationIT_EE5valueES8_E4typeERKNS2_IT0_T1_EE, symObjAddr: 0x46B8, symBinAddr: 0x10001476C, symSize: 0x30 }
  - { offsetInCU: 0x3E8F, offset: 0x4B86F, size: 0x8, addend: 0x0, symName: __ZNSt3__16chronoltB7v160006IxNS_5ratioILl1ELl1000000000EEExNS2_ILl1ELl1000EEEEEbRKNS0_8durationIT_T0_EERKNS5_IT1_T2_EE, symObjAddr: 0x46E8, symBinAddr: 0x10001479C, symSize: 0x34 }
  - { offsetInCU: 0x3EF0, offset: 0x4B8D0, size: 0x8, addend: 0x0, symName: __ZNSt3__16chronoltB7v160006IxNS_5ratioILl1ELl1000EEExS3_EEbRKNS0_8durationIT_T0_EERKNS4_IT1_T2_EE, symObjAddr: 0x471C, symBinAddr: 0x1000147D0, symSize: 0x34 }
  - { offsetInCU: 0x3F8E, offset: 0x4B96E, size: 0x8, addend: 0x0, symName: __ZNSt3__16chrono13duration_castB7v160006INS0_8durationIeNS_5ratioILl1ELl1000EEEEExS4_EENS_9enable_ifIXsr13__is_durationIT_EE5valueES7_E4typeERKNS2_IT0_T1_EE, symObjAddr: 0x4968, symBinAddr: 0x100014A1C, symSize: 0x30 }
  - { offsetInCU: 0x4020, offset: 0x4BA00, size: 0x8, addend: 0x0, symName: __ZNSt3__16chrono13duration_castB7v160006INS0_8durationIeNS_5ratioILl1ELl1000EEEEEeNS3_ILl1ELl1EEEEENS_9enable_ifIXsr13__is_durationIT_EE5valueES8_E4typeERKNS2_IT0_T1_EE, symObjAddr: 0x4A88, symBinAddr: 0x100014B3C, symSize: 0x30 }
  - { offsetInCU: 0x655E, offset: 0x4DF3E, size: 0x8, addend: 0x0, symName: __ZNSt3__111this_thread9sleep_forB7v160006IxNS_5ratioILl1ELl1000000EEEEEvRKNS_6chrono8durationIT_T0_EE, symObjAddr: 0xAAC, symBinAddr: 0x1000129D8, symSize: 0xBC }
  - { offsetInCU: 0x65C8, offset: 0x4DFA8, size: 0x8, addend: 0x0, symName: __ZNSt3__111this_thread9sleep_forB7v160006IxNS_5ratioILl1ELl1000EEEEEvRKNS_6chrono8durationIT_T0_EE, symObjAddr: 0xCD4, symBinAddr: 0x100012C00, symSize: 0xBC }
  - { offsetInCU: 0x6DF8, offset: 0x4E7D8, size: 0x8, addend: 0x0, symName: '__ZNSt3__114__thread_proxyB7v160006INS_5tupleIJNS_10unique_ptrINS_15__thread_structENS_14default_deleteIS3_EEEEZN12SharedBuffer15cyclicalConsumeEP4FileS9_E3$_2EEEEEPvSC_', symObjAddr: 0x32F8, symBinAddr: 0x1000138BC, symSize: 0x90 }
  - { offsetInCU: 0x6E59, offset: 0x4E839, size: 0x8, addend: 0x0, symName: '__ZNSt3__13getB7v160006ILm0EJNS_10unique_ptrINS_15__thread_structENS_14default_deleteIS2_EEEEZN12SharedBuffer15cyclicalConsumeEP4FileS8_E3$_2EEERNS_13tuple_elementIXT_ENS_5tupleIJDpT0_EEEE4typeERSE_', symObjAddr: 0x39AC, symBinAddr: 0x100013BC0, symSize: 0x24 }
  - { offsetInCU: 0x6EA2, offset: 0x4E882, size: 0x8, addend: 0x0, symName: '__ZNSt3__116__thread_executeB7v160006INS_10unique_ptrINS_15__thread_structENS_14default_deleteIS2_EEEEZN12SharedBuffer15cyclicalConsumeEP4FileS8_E3$_2JEJEEEvRNS_5tupleIJT_T0_DpT1_EEENS_15__tuple_indicesIJXspT2_EEEE', symObjAddr: 0x39D0, symBinAddr: 0x100013BE4, symSize: 0x28 }
  - { offsetInCU: 0x6EF5, offset: 0x4E8D5, size: 0x8, addend: 0x0, symName: '__ZNSt3__18__invokeB7v160006IZN12SharedBuffer15cyclicalConsumeEP4FileS3_E3$_2JEEEDTclclsr3stdE7declvalIT_EEspclsr3stdE7declvalIT0_EEEEOS5_DpOS6_', symObjAddr: 0x3A38, symBinAddr: 0x100013C0C, symSize: 0x24 }
  - { offsetInCU: 0x6F2E, offset: 0x4E90E, size: 0x8, addend: 0x0, symName: '__ZNSt3__13getB7v160006ILm1EJNS_10unique_ptrINS_15__thread_structENS_14default_deleteIS2_EEEEZN12SharedBuffer15cyclicalConsumeEP4FileS8_E3$_2EEERNS_13tuple_elementIXT_ENS_5tupleIJDpT0_EEEE4typeERSE_', symObjAddr: 0x3A5C, symBinAddr: 0x100013C30, symSize: 0x28 }
  - { offsetInCU: 0x7396, offset: 0x4ED76, size: 0x8, addend: 0x0, symName: '__ZNSt3__114__thread_proxyB7v160006INS_5tupleIJNS_10unique_ptrINS_15__thread_structENS_14default_deleteIS3_EEEEZN12SharedBuffer15cyclicalConsumeEP4FileS9_E3$_3EEEEEPvSC_', symObjAddr: 0x3FEC, symBinAddr: 0x1000140A0, symSize: 0x90 }
  - { offsetInCU: 0x73F7, offset: 0x4EDD7, size: 0x8, addend: 0x0, symName: '__ZNSt3__13getB7v160006ILm0EJNS_10unique_ptrINS_15__thread_structENS_14default_deleteIS2_EEEEZN12SharedBuffer15cyclicalConsumeEP4FileS8_E3$_3EEERNS_13tuple_elementIXT_ENS_5tupleIJDpT0_EEEE4typeERSE_', symObjAddr: 0x42F0, symBinAddr: 0x1000143A4, symSize: 0x24 }
  - { offsetInCU: 0x7440, offset: 0x4EE20, size: 0x8, addend: 0x0, symName: '__ZNSt3__116__thread_executeB7v160006INS_10unique_ptrINS_15__thread_structENS_14default_deleteIS2_EEEEZN12SharedBuffer15cyclicalConsumeEP4FileS8_E3$_3JEJEEEvRNS_5tupleIJT_T0_DpT1_EEENS_15__tuple_indicesIJXspT2_EEEE', symObjAddr: 0x4314, symBinAddr: 0x1000143C8, symSize: 0x28 }
  - { offsetInCU: 0x7493, offset: 0x4EE73, size: 0x8, addend: 0x0, symName: '__ZNSt3__18__invokeB7v160006IZN12SharedBuffer15cyclicalConsumeEP4FileS3_E3$_3JEEEDTclclsr3stdE7declvalIT_EEspclsr3stdE7declvalIT0_EEEEOS5_DpOS6_', symObjAddr: 0x433C, symBinAddr: 0x1000143F0, symSize: 0x24 }
  - { offsetInCU: 0x74CC, offset: 0x4EEAC, size: 0x8, addend: 0x0, symName: '__ZNSt3__13getB7v160006ILm1EJNS_10unique_ptrINS_15__thread_structENS_14default_deleteIS2_EEEEZN12SharedBuffer15cyclicalConsumeEP4FileS8_E3$_3EEERNS_13tuple_elementIXT_ENS_5tupleIJDpT0_EEEE4typeERSE_', symObjAddr: 0x4360, symBinAddr: 0x100014414, symSize: 0x28 }
  - { offsetInCU: 0x7934, offset: 0x4F314, size: 0x8, addend: 0x0, symName: '__ZNSt3__114__thread_proxyB7v160006INS_5tupleIJNS_10unique_ptrINS_15__thread_structENS_14default_deleteIS3_EEEEZN12SharedBuffer10resConsumeEP4FileE3$_4EEEEEPvSC_', symObjAddr: 0x4E00, symBinAddr: 0x100014EB4, symSize: 0x90 }
  - { offsetInCU: 0x7995, offset: 0x4F375, size: 0x8, addend: 0x0, symName: '__ZNSt3__13getB7v160006ILm0EJNS_10unique_ptrINS_15__thread_structENS_14default_deleteIS2_EEEEZN12SharedBuffer10resConsumeEP4FileE3$_4EEERNS_13tuple_elementIXT_ENS_5tupleIJDpT0_EEEE4typeERSE_', symObjAddr: 0x5104, symBinAddr: 0x1000151B8, symSize: 0x24 }
  - { offsetInCU: 0x79DE, offset: 0x4F3BE, size: 0x8, addend: 0x0, symName: '__ZNSt3__116__thread_executeB7v160006INS_10unique_ptrINS_15__thread_structENS_14default_deleteIS2_EEEEZN12SharedBuffer10resConsumeEP4FileE3$_4JEJEEEvRNS_5tupleIJT_T0_DpT1_EEENS_15__tuple_indicesIJXspT2_EEEE', symObjAddr: 0x5128, symBinAddr: 0x1000151DC, symSize: 0x28 }
  - { offsetInCU: 0x7A31, offset: 0x4F411, size: 0x8, addend: 0x0, symName: '__ZNSt3__18__invokeB7v160006IZN12SharedBuffer10resConsumeEP4FileE3$_4JEEEDTclclsr3stdE7declvalIT_EEspclsr3stdE7declvalIT0_EEEEOS5_DpOS6_', symObjAddr: 0x5150, symBinAddr: 0x100015204, symSize: 0x24 }
  - { offsetInCU: 0x7A6A, offset: 0x4F44A, size: 0x8, addend: 0x0, symName: '__ZNSt3__13getB7v160006ILm1EJNS_10unique_ptrINS_15__thread_structENS_14default_deleteIS2_EEEEZN12SharedBuffer10resConsumeEP4FileE3$_4EEERNS_13tuple_elementIXT_ENS_5tupleIJDpT0_EEEE4typeERSE_', symObjAddr: 0x5174, symBinAddr: 0x100015228, symSize: 0x28 }
  - { offsetInCU: 0x7BE0, offset: 0x4F5C0, size: 0x8, addend: 0x0, symName: __ZL8ITEM_MIN, symObjAddr: 0x4AC68, symBinAddr: 0x100020408, symSize: 0x0 }
  - { offsetInCU: 0x7CCD, offset: 0x4F6AD, size: 0x8, addend: 0x0, symName: __ZL8ITEM_MAX, symObjAddr: 0x4ACB0, symBinAddr: 0x100020450, symSize: 0x0 }
  - { offsetInCU: 0x7DE4, offset: 0x4F7C4, size: 0x8, addend: 0x0, symName: __ZNKSt3__16chrono13__duration_ltINS0_8durationIxNS_5ratioILl1ELl1000000EEEEENS2_IeNS3_ILl1ELl1EEEEEEclB7v160006ERKS5_RKS7_, symObjAddr: 0x2BE4, symBinAddr: 0x100013214, symSize: 0x78 }
  - { offsetInCU: 0x7E64, offset: 0x4F844, size: 0x8, addend: 0x0, symName: __ZNKSt3__16chrono15__duration_castINS0_8durationIeNS_5ratioILl1ELl1EEEEENS2_IeNS3_ILl1ELl1000000EEEEENS3_ILl1000000ELl1EEELb0ELb1EEclB7v160006ERKS5_, symObjAddr: 0x2E84, symBinAddr: 0x1000134B4, symSize: 0x4C }
  - { offsetInCU: 0x7ED3, offset: 0x4F8B3, size: 0x8, addend: 0x0, symName: __ZNKSt3__16chrono15__duration_castINS0_8durationIxNS_5ratioILl1ELl1000000EEEEENS2_IxNS3_ILl1ELl1000000000EEEEENS3_ILl1000ELl1EEELb0ELb1EEclB7v160006ERKS5_, symObjAddr: 0x2EE8, symBinAddr: 0x100013518, symSize: 0x48 }
  - { offsetInCU: 0x7F1C, offset: 0x4F8FC, size: 0x8, addend: 0x0, symName: __ZNKSt3__16chrono13__duration_ltINS0_8durationIxNS_5ratioILl1ELl1000000000EEEEENS2_IxNS3_ILl1ELl1000000EEEEEEclB7v160006ERKS5_RKS7_, symObjAddr: 0x2F94, symBinAddr: 0x1000135C4, symSize: 0x6C }
  - { offsetInCU: 0x8304, offset: 0x4FCE4, size: 0x8, addend: 0x0, symName: __ZN12SharedBuffer15cyclicalConsumeEP4FileS1_, symObjAddr: 0x8E0, symBinAddr: 0x10001280C, symSize: 0x17C }
  - { offsetInCU: 0x84ED, offset: 0x4FECD, size: 0x8, addend: 0x0, symName: __ZNKSt3__16chrono13__duration_ltINS0_8durationIxNS_5ratioILl1ELl1000EEEEENS2_IeNS3_ILl1ELl1EEEEEEclB7v160006ERKS5_RKS7_, symObjAddr: 0x4818, symBinAddr: 0x1000148CC, symSize: 0x78 }
  - { offsetInCU: 0x856D, offset: 0x4FF4D, size: 0x8, addend: 0x0, symName: __ZNKSt3__16chrono15__duration_castINS0_8durationIeNS_5ratioILl1ELl1EEEEENS2_IeNS3_ILl1ELl1000EEEEENS3_ILl1000ELl1EEELb0ELb1EEclB7v160006ERKS5_, symObjAddr: 0x4AB8, symBinAddr: 0x100014B6C, symSize: 0x4C }
  - { offsetInCU: 0x85B6, offset: 0x4FF96, size: 0x8, addend: 0x0, symName: __ZNKSt3__16chrono15__duration_castINS0_8durationIxNS_5ratioILl1ELl1000EEEEENS2_IxNS3_ILl1ELl1000000000EEEEENS3_ILl1000000ELl1EEELb0ELb1EEclB7v160006ERKS5_, symObjAddr: 0x4B04, symBinAddr: 0x100014BB8, symSize: 0x4C }
  - { offsetInCU: 0x85FF, offset: 0x4FFDF, size: 0x8, addend: 0x0, symName: __ZNKSt3__16chrono13__duration_ltINS0_8durationIxNS_5ratioILl1ELl1000000000EEEEENS2_IxNS3_ILl1ELl1000EEEEEEclB7v160006ERKS5_RKS7_, symObjAddr: 0x4B50, symBinAddr: 0x100014C04, symSize: 0x6C }
  - { offsetInCU: 0x8654, offset: 0x50034, size: 0x8, addend: 0x0, symName: __ZN12SharedBuffer10resConsumeEP4File, symObjAddr: 0xC0C, symBinAddr: 0x100012B38, symSize: 0xC8 }
  - { offsetInCU: 0xA2FB, offset: 0x51CDB, size: 0x8, addend: 0x0, symName: __ZN12SharedBufferC2Ei, symObjAddr: 0xC8, symBinAddr: 0x100012078, symSize: 0x1D8 }
  - { offsetInCU: 0xA335, offset: 0x51D15, size: 0x8, addend: 0x0, symName: __ZNSt3__15mutexC1B7v160006Ev, symObjAddr: 0x2A0, symBinAddr: 0x100012250, symSize: 0x2C }
  - { offsetInCU: 0xA35F, offset: 0x51D3F, size: 0x8, addend: 0x0, symName: __ZNSt3__118condition_variableC1B7v160006Ev, symObjAddr: 0x2CC, symBinAddr: 0x10001227C, symSize: 0x2C }
  - { offsetInCU: 0xA389, offset: 0x51D69, size: 0x8, addend: 0x0, symName: __ZN12SharedBufferC1Ei, symObjAddr: 0x2F8, symBinAddr: 0x1000122A8, symSize: 0x34 }
  - { offsetInCU: 0xA3C3, offset: 0x51DA3, size: 0x8, addend: 0x0, symName: __ZN12SharedBufferD2Ev, symObjAddr: 0x32C, symBinAddr: 0x1000122DC, symSize: 0x48 }
  - { offsetInCU: 0xA3EF, offset: 0x51DCF, size: 0x8, addend: 0x0, symName: __ZN12SharedBufferD1Ev, symObjAddr: 0x374, symBinAddr: 0x100012324, symSize: 0x2C }
  - { offsetInCU: 0xA41B, offset: 0x51DFB, size: 0x8, addend: 0x0, symName: __ZN12SharedBuffer7produceERK4Itemb, symObjAddr: 0x3A0, symBinAddr: 0x100012350, symSize: 0xF0 }
  - { offsetInCU: 0xA493, offset: 0x51E73, size: 0x8, addend: 0x0, symName: __ZNSt3__111unique_lockINS_5mutexEEC1B7v160006ERS1_, symObjAddr: 0x490, symBinAddr: 0x100012440, symSize: 0x34 }
  - { offsetInCU: 0xA4D5, offset: 0x51EB5, size: 0x8, addend: 0x0, symName: '__ZNSt3__118condition_variable4waitIZN12SharedBuffer7produceERK4ItembE3$_0EEvRNS_11unique_lockINS_5mutexEEET_', symObjAddr: 0x4C4, symBinAddr: 0x100012474, symSize: 0x50 }
  - { offsetInCU: 0xA522, offset: 0x51F02, size: 0x8, addend: 0x0, symName: __ZNSt3__111unique_lockINS_5mutexEE6unlockEv, symObjAddr: 0x598, symBinAddr: 0x1000124C4, symSize: 0x54 }
  - { offsetInCU: 0xA549, offset: 0x51F29, size: 0x8, addend: 0x0, symName: __ZNSt3__111unique_lockINS_5mutexEED1B7v160006Ev, symObjAddr: 0x5EC, symBinAddr: 0x100012518, symSize: 0x2C }
  - { offsetInCU: 0xA573, offset: 0x51F53, size: 0x8, addend: 0x0, symName: __ZN12SharedBuffer7consumeEP4File, symObjAddr: 0x618, symBinAddr: 0x100012544, symSize: 0x204 }
  - { offsetInCU: 0xA62B, offset: 0x5200B, size: 0x8, addend: 0x0, symName: '__ZNSt3__118condition_variable4waitIZN12SharedBuffer7consumeEP4FileE3$_1EEvRNS_11unique_lockINS_5mutexEEET_', symObjAddr: 0x81C, symBinAddr: 0x100012748, symSize: 0x54 }
  - { offsetInCU: 0xA678, offset: 0x52058, size: 0x8, addend: 0x0, symName: __ZN12SharedBuffer18getValidDataLengthEv, symObjAddr: 0x870, symBinAddr: 0x10001279C, symSize: 0x70 }
  - { offsetInCU: 0xA6AE, offset: 0x5208E, size: 0x8, addend: 0x0, symName: __ZN12SharedBuffer13isBufferEmptyEv, symObjAddr: 0xA5C, symBinAddr: 0x100012988, symSize: 0x50 }
  - { offsetInCU: 0xA6E1, offset: 0x520C1, size: 0x8, addend: 0x0, symName: __ZNSt3__16chrono8durationIxNS_5ratioILl1ELl1000000EEEEC1B7v160006IiEERKT_PNS_9enable_ifIXaasr14is_convertibleIS8_xEE5valueooL_ZNS_17integral_constantIbLb0EE5valueEEntsr23treat_as_floating_pointIS6_EE5valueEvE4typeE, symObjAddr: 0xB68, symBinAddr: 0x100012A94, symSize: 0x3C }
  - { offsetInCU: 0xA755, offset: 0x52135, size: 0x8, addend: 0x0, symName: '__ZNSt3__16threadC1IZN12SharedBuffer15cyclicalConsumeEP4FileS4_E3$_2JEvEEOT_DpOT0_', symObjAddr: 0xBA4, symBinAddr: 0x100012AD0, symSize: 0x34 }
  - { offsetInCU: 0xA7A3, offset: 0x52183, size: 0x8, addend: 0x0, symName: '__ZNSt3__16threadC1IZN12SharedBuffer15cyclicalConsumeEP4FileS4_E3$_3JEvEEOT_DpOT0_', symObjAddr: 0xBD8, symBinAddr: 0x100012B04, symSize: 0x34 }
  - { offsetInCU: 0xA7EB, offset: 0x521CB, size: 0x8, addend: 0x0, symName: __ZNSt3__16chrono8durationIxNS_5ratioILl1ELl1000EEEEC1B7v160006IiEERKT_PNS_9enable_ifIXaasr14is_convertibleIS8_xEE5valueooL_ZNS_17integral_constantIbLb0EE5valueEEntsr23treat_as_floating_pointIS6_EE5valueEvE4typeE, symObjAddr: 0xD90, symBinAddr: 0x100012CBC, symSize: 0x3C }
  - { offsetInCU: 0xA83E, offset: 0x5221E, size: 0x8, addend: 0x0, symName: '__ZNSt3__16threadC1IZN12SharedBuffer10resConsumeEP4FileE3$_4JEvEEOT_DpOT0_', symObjAddr: 0xDCC, symBinAddr: 0x100012CF8, symSize: 0x34 }
  - { offsetInCU: 0xA886, offset: 0x52266, size: 0x8, addend: 0x0, symName: __ZN12SharedBuffer12isBufferFullEv, symObjAddr: 0xE00, symBinAddr: 0x100012D2C, symSize: 0x3C }
  - { offsetInCU: 0xA8AE, offset: 0x5228E, size: 0x8, addend: 0x0, symName: __ZN12SharedBuffer26isBufferBigEnoughToConsumeEi, symObjAddr: 0xE3C, symBinAddr: 0x100012D68, symSize: 0x38 }
  - { offsetInCU: 0xA8E4, offset: 0x522C4, size: 0x8, addend: 0x0, symName: __ZN12SharedBuffer5resetEv, symObjAddr: 0xE74, symBinAddr: 0x100012DA0, symSize: 0x20 }
  - { offsetInCU: 0xA90C, offset: 0x522EC, size: 0x8, addend: 0x0, symName: __ZNSt3__15mutexC2B7v160006Ev, symObjAddr: 0xEF8, symBinAddr: 0x100012DC0, symSize: 0x44 }
  - { offsetInCU: 0xA936, offset: 0x52316, size: 0x8, addend: 0x0, symName: __ZNSt3__118condition_variableC2B7v160006Ev, symObjAddr: 0xF3C, symBinAddr: 0x100012E04, symSize: 0x44 }
  - { offsetInCU: 0xA960, offset: 0x52340, size: 0x8, addend: 0x0, symName: __ZNSt3__16chrono8durationIxNS_5ratioILl1ELl1000000EEEEC2B7v160006IiEERKT_PNS_9enable_ifIXaasr14is_convertibleIS8_xEE5valueooL_ZNS_17integral_constantIbLb0EE5valueEEntsr23treat_as_floating_pointIS6_EE5valueEvE4typeE, symObjAddr: 0xF80, symBinAddr: 0x100012E48, symSize: 0x28 }
  - { offsetInCU: 0xA9AD, offset: 0x5238D, size: 0x8, addend: 0x0, symName: __ZNSt3__16chrono8durationIxNS_5ratioILl1ELl1000EEEEC2B7v160006IiEERKT_PNS_9enable_ifIXaasr14is_convertibleIS8_xEE5valueooL_ZNS_17integral_constantIbLb0EE5valueEEntsr23treat_as_floating_pointIS6_EE5valueEvE4typeE, symObjAddr: 0xFA8, symBinAddr: 0x100012E70, symSize: 0x28 }
  - { offsetInCU: 0xAA15, offset: 0x523F5, size: 0x8, addend: 0x0, symName: __ZNSt3__111unique_lockINS_5mutexEEC2B7v160006ERS1_, symObjAddr: 0x2868, symBinAddr: 0x100012E98, symSize: 0x44 }
  - { offsetInCU: 0xAA4D, offset: 0x5242D, size: 0x8, addend: 0x0, symName: __ZNSt3__111unique_lockINS_5mutexEED2B7v160006Ev, symObjAddr: 0x28AC, symBinAddr: 0x100012EDC, symSize: 0x4C }
  - { offsetInCU: 0xAA77, offset: 0x52457, size: 0x8, addend: 0x0, symName: '__ZZN12SharedBuffer7produceERK4ItembENK3$_0clEv', symObjAddr: 0x28F8, symBinAddr: 0x100012F28, symSize: 0x30 }
  - { offsetInCU: 0xAAA1, offset: 0x52481, size: 0x8, addend: 0x0, symName: '__ZZN12SharedBuffer7consumeEP4FileENK3$_1clEv', symObjAddr: 0x2928, symBinAddr: 0x100012F58, symSize: 0x58 }
  - { offsetInCU: 0xAACB, offset: 0x524AB, size: 0x8, addend: 0x0, symName: __ZNSt3__16chrono8durationIxNS_5ratioILl1ELl1000000EEEE4zeroB7v160006Ev, symObjAddr: 0x29B0, symBinAddr: 0x100012FE0, symSize: 0x3C }
  - { offsetInCU: 0xAADF, offset: 0x524BF, size: 0x8, addend: 0x0, symName: __ZNSt3__16chrono8durationIxNS_5ratioILl1ELl1000000000EEEEppB7v160006Ev, symObjAddr: 0x2A84, symBinAddr: 0x1000130B4, symSize: 0x20 }
  - { offsetInCU: 0xAB05, offset: 0x524E5, size: 0x8, addend: 0x0, symName: __ZNSt3__16chrono8durationIxNS_5ratioILl1ELl1000000000EEEE3maxB7v160006Ev, symObjAddr: 0x2AA4, symBinAddr: 0x1000130D4, symSize: 0x3C }
  - { offsetInCU: 0xAB23, offset: 0x52503, size: 0x8, addend: 0x0, symName: __ZNKSt3__16chrono13__duration_ltINS0_8durationIxNS_5ratioILl1ELl1000000EEEEES5_EclB7v160006ERKS5_S8_, symObjAddr: 0x2B14, symBinAddr: 0x100013144, symSize: 0x4C }
  - { offsetInCU: 0xAB67, offset: 0x52547, size: 0x8, addend: 0x0, symName: __ZNKSt3__16chrono8durationIxNS_5ratioILl1ELl1000000EEEE5countB7v160006Ev, symObjAddr: 0x2B60, symBinAddr: 0x100013190, symSize: 0x18 }
  - { offsetInCU: 0xAB8D, offset: 0x5256D, size: 0x8, addend: 0x0, symName: __ZNSt3__16chrono15duration_valuesIxE4zeroB7v160006Ev, symObjAddr: 0x2B78, symBinAddr: 0x1000131A8, symSize: 0x8 }
  - { offsetInCU: 0xABAC, offset: 0x5258C, size: 0x8, addend: 0x0, symName: __ZNSt3__16chrono8durationIxNS_5ratioILl1ELl1000000EEEEC1B7v160006IxEERKT_PNS_9enable_ifIXaasr14is_convertibleIS8_xEE5valueooL_ZNS_17integral_constantIbLb0EE5valueEEntsr23treat_as_floating_pointIS6_EE5valueEvE4typeE, symObjAddr: 0x2B80, symBinAddr: 0x1000131B0, symSize: 0x3C }
  - { offsetInCU: 0xABF9, offset: 0x525D9, size: 0x8, addend: 0x0, symName: __ZNSt3__16chrono8durationIxNS_5ratioILl1ELl1000000EEEEC2B7v160006IxEERKT_PNS_9enable_ifIXaasr14is_convertibleIS8_xEE5valueooL_ZNS_17integral_constantIbLb0EE5valueEEntsr23treat_as_floating_pointIS6_EE5valueEvE4typeE, symObjAddr: 0x2BBC, symBinAddr: 0x1000131EC, symSize: 0x28 }
  - { offsetInCU: 0xAC46, offset: 0x52626, size: 0x8, addend: 0x0, symName: __ZNSt3__16chrono8durationIeNS_5ratioILl1ELl1000000EEEEC1B7v160006IxS3_EERKNS1_IT_T0_EEPNS_9enable_ifIXaasr13__no_overflowIS7_S3_EE5valueooL_ZNS_17integral_constantIbLb1EE5valueEEaaeqsr13__no_overflowIS7_S3_E4typeE3denLi1Entsr23treat_as_floating_pointIS6_EE5valueEvE4typeE, symObjAddr: 0x2C5C, symBinAddr: 0x10001328C, symSize: 0x3C }
  - { offsetInCU: 0xAC9D, offset: 0x5267D, size: 0x8, addend: 0x0, symName: __ZNKSt3__16chrono8durationIeNS_5ratioILl1ELl1000000EEEE5countB7v160006Ev, symObjAddr: 0x2C98, symBinAddr: 0x1000132C8, symSize: 0x18 }
  - { offsetInCU: 0xACC3, offset: 0x526A3, size: 0x8, addend: 0x0, symName: __ZNSt3__16chrono8durationIeNS_5ratioILl1ELl1000000EEEEC1B7v160006IeNS2_ILl1ELl1EEEEERKNS1_IT_T0_EEPNS_9enable_ifIXaasr13__no_overflowIS8_S3_EE5valueooL_ZNS_17integral_constantIbLb1EE5valueEEaaeqsr13__no_overflowIS8_S3_E4typeE3denLi1Entsr23treat_as_floating_pointIS7_EE5valueEvE4typeE, symObjAddr: 0x2CB0, symBinAddr: 0x1000132E0, symSize: 0x3C }
  - { offsetInCU: 0xAD1A, offset: 0x526FA, size: 0x8, addend: 0x0, symName: __ZNSt3__16chrono8durationIeNS_5ratioILl1ELl1000000EEEEC2B7v160006IxS3_EERKNS1_IT_T0_EEPNS_9enable_ifIXaasr13__no_overflowIS7_S3_EE5valueooL_ZNS_17integral_constantIbLb1EE5valueEEaaeqsr13__no_overflowIS7_S3_E4typeE3denLi1Entsr23treat_as_floating_pointIS6_EE5valueEvE4typeE, symObjAddr: 0x2CEC, symBinAddr: 0x10001331C, symSize: 0x48 }
  - { offsetInCU: 0xAD7B, offset: 0x5275B, size: 0x8, addend: 0x0, symName: __ZNKSt3__16chrono15__duration_castINS0_8durationIxNS_5ratioILl1ELl1000000EEEEENS2_IeS4_EENS3_ILl1ELl1EEELb1ELb1EEclB7v160006ERKS5_, symObjAddr: 0x2D64, symBinAddr: 0x100013394, symSize: 0x44 }
  - { offsetInCU: 0xADBA, offset: 0x5279A, size: 0x8, addend: 0x0, symName: __ZNSt3__16chrono8durationIeNS_5ratioILl1ELl1000000EEEEC1B7v160006IeEERKT_PNS_9enable_ifIXaasr14is_convertibleIS8_eEE5valueooL_ZNS_17integral_constantIbLb1EE5valueEEntsr23treat_as_floating_pointIS6_EE5valueEvE4typeE, symObjAddr: 0x2DA8, symBinAddr: 0x1000133D8, symSize: 0x3C }
  - { offsetInCU: 0xAE07, offset: 0x527E7, size: 0x8, addend: 0x0, symName: __ZNSt3__16chrono8durationIeNS_5ratioILl1ELl1000000EEEEC2B7v160006IeEERKT_PNS_9enable_ifIXaasr14is_convertibleIS8_eEE5valueooL_ZNS_17integral_constantIbLb1EE5valueEEntsr23treat_as_floating_pointIS6_EE5valueEvE4typeE, symObjAddr: 0x2DE4, symBinAddr: 0x100013414, symSize: 0x28 }
  - { offsetInCU: 0xAE54, offset: 0x52834, size: 0x8, addend: 0x0, symName: __ZNSt3__16chrono8durationIeNS_5ratioILl1ELl1000000EEEEC2B7v160006IeNS2_ILl1ELl1EEEEERKNS1_IT_T0_EEPNS_9enable_ifIXaasr13__no_overflowIS8_S3_EE5valueooL_ZNS_17integral_constantIbLb1EE5valueEEaaeqsr13__no_overflowIS8_S3_E4typeE3denLi1Entsr23treat_as_floating_pointIS7_EE5valueEvE4typeE, symObjAddr: 0x2E0C, symBinAddr: 0x10001343C, symSize: 0x48 }
  - { offsetInCU: 0xAEAB, offset: 0x5288B, size: 0x8, addend: 0x0, symName: __ZNKSt3__16chrono8durationIeNS_5ratioILl1ELl1EEEE5countB7v160006Ev, symObjAddr: 0x2ED0, symBinAddr: 0x100013500, symSize: 0x18 }
  - { offsetInCU: 0xAED1, offset: 0x528B1, size: 0x8, addend: 0x0, symName: __ZNSt3__16chrono8durationIxNS_5ratioILl1ELl1000000000EEEEC1B7v160006IxEERKT_PNS_9enable_ifIXaasr14is_convertibleIS8_xEE5valueooL_ZNS_17integral_constantIbLb0EE5valueEEntsr23treat_as_floating_pointIS6_EE5valueEvE4typeE, symObjAddr: 0x2F30, symBinAddr: 0x100013560, symSize: 0x3C }
  - { offsetInCU: 0xAF1E, offset: 0x528FE, size: 0x8, addend: 0x0, symName: __ZNSt3__16chrono8durationIxNS_5ratioILl1ELl1000000000EEEEC2B7v160006IxEERKT_PNS_9enable_ifIXaasr14is_convertibleIS8_xEE5valueooL_ZNS_17integral_constantIbLb0EE5valueEEntsr23treat_as_floating_pointIS6_EE5valueEvE4typeE, symObjAddr: 0x2F6C, symBinAddr: 0x10001359C, symSize: 0x28 }
  - { offsetInCU: 0xAF6B, offset: 0x5294B, size: 0x8, addend: 0x0, symName: __ZNKSt3__16chrono8durationIxNS_5ratioILl1ELl1000000000EEEE5countB7v160006Ev, symObjAddr: 0x3000, symBinAddr: 0x100013630, symSize: 0x18 }
  - { offsetInCU: 0xAF91, offset: 0x52971, size: 0x8, addend: 0x0, symName: __ZNSt3__16chrono8durationIxNS_5ratioILl1ELl1000000000EEEEC1B7v160006IxNS2_ILl1ELl1000000EEEEERKNS1_IT_T0_EEPNS_9enable_ifIXaasr13__no_overflowIS8_S3_EE5valueooL_ZNS_17integral_constantIbLb0EE5valueEEaaeqsr13__no_overflowIS8_S3_E4typeE3denLi1Entsr23treat_as_floating_pointIS7_EE5valueEvE4typeE, symObjAddr: 0x3018, symBinAddr: 0x100013648, symSize: 0x3C }
  - { offsetInCU: 0xAFE8, offset: 0x529C8, size: 0x8, addend: 0x0, symName: __ZNSt3__16chrono8durationIxNS_5ratioILl1ELl1000000000EEEEC2B7v160006IxNS2_ILl1ELl1000000EEEEERKNS1_IT_T0_EEPNS_9enable_ifIXaasr13__no_overflowIS8_S3_EE5valueooL_ZNS_17integral_constantIbLb0EE5valueEEaaeqsr13__no_overflowIS8_S3_E4typeE3denLi1Entsr23treat_as_floating_pointIS7_EE5valueEvE4typeE, symObjAddr: 0x3054, symBinAddr: 0x100013684, symSize: 0x50 }
  - { offsetInCU: 0xB03F, offset: 0x52A1F, size: 0x8, addend: 0x0, symName: __ZNSt3__16chrono15duration_valuesIxE3maxB7v160006Ev, symObjAddr: 0x30A4, symBinAddr: 0x1000136D4, symSize: 0x14 }
  - { offsetInCU: 0xB053, offset: 0x52A33, size: 0x8, addend: 0x0, symName: __ZNSt3__114numeric_limitsIxE3maxB7v160006Ev, symObjAddr: 0x30B8, symBinAddr: 0x1000136E8, symSize: 0x14 }
  - { offsetInCU: 0xB067, offset: 0x52A47, size: 0x8, addend: 0x0, symName: __ZNSt3__123__libcpp_numeric_limitsIxLb1EE3maxB7v160006Ev, symObjAddr: 0x30CC, symBinAddr: 0x1000136FC, symSize: 0x8 }
  - { offsetInCU: 0xB07B, offset: 0x52A5B, size: 0x8, addend: 0x0, symName: '__ZNSt3__16threadC2IZN12SharedBuffer15cyclicalConsumeEP4FileS4_E3$_2JEvEEOT_DpOT0_', symObjAddr: 0x30D4, symBinAddr: 0x100013704, symSize: 0x148 }
  - { offsetInCU: 0xB0F6, offset: 0x52AD6, size: 0x8, addend: 0x0, symName: '__ZNSt3__15tupleIJNS_10unique_ptrINS_15__thread_structENS_14default_deleteIS2_EEEEZN12SharedBuffer15cyclicalConsumeEP4FileS8_E3$_2EEC1B7v160006IJS5_S9_ELi0EEEDpOT_', symObjAddr: 0x3250, symBinAddr: 0x10001384C, symSize: 0x3C }
  - { offsetInCU: 0xB1EE, offset: 0x52BCE, size: 0x8, addend: 0x0, symName: '__ZNSt3__110unique_ptrINS_5tupleIJNS0_INS_15__thread_structENS_14default_deleteIS2_EEEEZN12SharedBuffer15cyclicalConsumeEP4FileS8_E3$_2EEENS3_ISA_EEEC1B7v160006ILb1EvEEPSA_', symObjAddr: 0x328C, symBinAddr: 0x100013888, symSize: 0x34 }
  - { offsetInCU: 0xB231, offset: 0x52C11, size: 0x8, addend: 0x0, symName: '__ZNKSt3__110unique_ptrINS_5tupleIJNS0_INS_15__thread_structENS_14default_deleteIS2_EEEEZN12SharedBuffer15cyclicalConsumeEP4FileS8_E3$_2EEENS3_ISA_EEE3getB7v160006Ev', symObjAddr: 0x3388, symBinAddr: 0x10001394C, symSize: 0x28 }
  - { offsetInCU: 0xB257, offset: 0x52C37, size: 0x8, addend: 0x0, symName: '__ZNSt3__110unique_ptrINS_5tupleIJNS0_INS_15__thread_structENS_14default_deleteIS2_EEEEZN12SharedBuffer15cyclicalConsumeEP4FileS8_E3$_2EEENS3_ISA_EEE7releaseB7v160006Ev', symObjAddr: 0x33B0, symBinAddr: 0x100013974, symSize: 0x44 }
  - { offsetInCU: 0xB28C, offset: 0x52C6C, size: 0x8, addend: 0x0, symName: '__ZNSt3__110unique_ptrINS_5tupleIJNS0_INS_15__thread_structENS_14default_deleteIS2_EEEEZN12SharedBuffer15cyclicalConsumeEP4FileS8_E3$_2EEENS3_ISA_EEED1B7v160006Ev', symObjAddr: 0x33F4, symBinAddr: 0x1000139B8, symSize: 0x2C }
  - { offsetInCU: 0xB2BC, offset: 0x52C9C, size: 0x8, addend: 0x0, symName: '__ZNSt3__15tupleIJNS_10unique_ptrINS_15__thread_structENS_14default_deleteIS2_EEEEZN12SharedBuffer15cyclicalConsumeEP4FileS8_E3$_2EEC2B7v160006IJS5_S9_ELi0EEEDpOT_', symObjAddr: 0x3544, symBinAddr: 0x1000139E4, symSize: 0x3C }
  - { offsetInCU: 0xB31A, offset: 0x52CFA, size: 0x8, addend: 0x0, symName: '__ZNSt3__112__tuple_implINS_15__tuple_indicesIJLm0ELm1EEEEJNS_10unique_ptrINS_15__thread_structENS_14default_deleteIS4_EEEEZN12SharedBuffer15cyclicalConsumeEP4FileSA_E3$_2EEC1B7v160006IJLm0ELm1EEJS7_SB_EJEJEJS7_SB_EEENS1_IJXspT_EEEENS_13__tuple_typesIJDpT0_EEENS1_IJXspT1_EEEENSF_IJDpT2_EEEDpOT3_', symObjAddr: 0x3580, symBinAddr: 0x100013A20, symSize: 0x3C }
  - { offsetInCU: 0xB3CE, offset: 0x52DAE, size: 0x8, addend: 0x0, symName: '__ZNSt3__112__tuple_implINS_15__tuple_indicesIJLm0ELm1EEEEJNS_10unique_ptrINS_15__thread_structENS_14default_deleteIS4_EEEEZN12SharedBuffer15cyclicalConsumeEP4FileSA_E3$_2EEC2B7v160006IJLm0ELm1EEJS7_SB_EJEJEJS7_SB_EEENS1_IJXspT_EEEENS_13__tuple_typesIJDpT0_EEENS1_IJXspT1_EEEENSF_IJDpT2_EEEDpOT3_', symObjAddr: 0x35BC, symBinAddr: 0x100013A5C, symSize: 0x48 }
  - { offsetInCU: 0xB482, offset: 0x52E62, size: 0x8, addend: 0x0, symName: '__ZNSt3__112__tuple_leafILm1EZN12SharedBuffer15cyclicalConsumeEP4FileS3_E3$_2Lb0EEC2B7v160006IS4_vEEOT_', symObjAddr: 0x3638, symBinAddr: 0x100013AA4, symSize: 0x24 }
  - { offsetInCU: 0xB4C5, offset: 0x52EA5, size: 0x8, addend: 0x0, symName: '__ZNSt3__110unique_ptrINS_5tupleIJNS0_INS_15__thread_structENS_14default_deleteIS2_EEEEZN12SharedBuffer15cyclicalConsumeEP4FileS8_E3$_2EEENS3_ISA_EEEC2B7v160006ILb1EvEEPSA_', symObjAddr: 0x3884, symBinAddr: 0x100013AC8, symSize: 0x44 }
  - { offsetInCU: 0xB508, offset: 0x52EE8, size: 0x8, addend: 0x0, symName: '__ZNSt3__117__compressed_pairIPNS_5tupleIJNS_10unique_ptrINS_15__thread_structENS_14default_deleteIS3_EEEEZN12SharedBuffer15cyclicalConsumeEP4FileS9_E3$_2EEENS4_ISB_EEEC1B7v160006IRSC_NS_16__value_init_tagEEEOT_OT0_', symObjAddr: 0x38C8, symBinAddr: 0x100013B0C, symSize: 0x3C }
  - { offsetInCU: 0xB560, offset: 0x52F40, size: 0x8, addend: 0x0, symName: '__ZNSt3__117__compressed_pairIPNS_5tupleIJNS_10unique_ptrINS_15__thread_structENS_14default_deleteIS3_EEEEZN12SharedBuffer15cyclicalConsumeEP4FileS9_E3$_2EEENS4_ISB_EEEC2B7v160006IRSC_NS_16__value_init_tagEEEOT_OT0_', symObjAddr: 0x3904, symBinAddr: 0x100013B48, symSize: 0x40 }
  - { offsetInCU: 0xB5B8, offset: 0x52F98, size: 0x8, addend: 0x0, symName: '__ZNSt3__122__compressed_pair_elemIPNS_5tupleIJNS_10unique_ptrINS_15__thread_structENS_14default_deleteIS3_EEEEZN12SharedBuffer15cyclicalConsumeEP4FileS9_E3$_2EEELi0ELb0EEC2B7v160006IRSC_vEEOT_', symObjAddr: 0x3944, symBinAddr: 0x100013B88, symSize: 0x24 }
  - { offsetInCU: 0xB5FA, offset: 0x52FDA, size: 0x8, addend: 0x0, symName: '__ZNSt3__122__compressed_pair_elemINS_14default_deleteINS_5tupleIJNS_10unique_ptrINS_15__thread_structENS1_IS4_EEEEZN12SharedBuffer15cyclicalConsumeEP4FileS9_E3$_2EEEEELi1ELb1EEC2B7v160006ENS_16__value_init_tagE', symObjAddr: 0x3968, symBinAddr: 0x100013BAC, symSize: 0x14 }
  - { offsetInCU: 0xB62F, offset: 0x5300F, size: 0x8, addend: 0x0, symName: '__ZZN12SharedBuffer15cyclicalConsumeEP4FileS1_ENK3$_2clEv', symObjAddr: 0x3A84, symBinAddr: 0x100013C58, symSize: 0x30 }
  - { offsetInCU: 0xB659, offset: 0x53039, size: 0x8, addend: 0x0, symName: '__ZNSt3__112__tuple_leafILm1EZN12SharedBuffer15cyclicalConsumeEP4FileS3_E3$_2Lb0EE3getB7v160006Ev', symObjAddr: 0x3AB4, symBinAddr: 0x100013C88, symSize: 0x14 }
  - { offsetInCU: 0xB67F, offset: 0x5305F, size: 0x8, addend: 0x0, symName: '__ZNKSt3__117__compressed_pairIPNS_5tupleIJNS_10unique_ptrINS_15__thread_structENS_14default_deleteIS3_EEEEZN12SharedBuffer15cyclicalConsumeEP4FileS9_E3$_2EEENS4_ISB_EEE5firstB7v160006Ev', symObjAddr: 0x3AC8, symBinAddr: 0x100013C9C, symSize: 0x24 }
  - { offsetInCU: 0xB6A5, offset: 0x53085, size: 0x8, addend: 0x0, symName: '__ZNKSt3__122__compressed_pair_elemIPNS_5tupleIJNS_10unique_ptrINS_15__thread_structENS_14default_deleteIS3_EEEEZN12SharedBuffer15cyclicalConsumeEP4FileS9_E3$_2EEELi0ELb0EE5__getB7v160006Ev', symObjAddr: 0x3AEC, symBinAddr: 0x100013CC0, symSize: 0x14 }
  - { offsetInCU: 0xB6CB, offset: 0x530AB, size: 0x8, addend: 0x0, symName: '__ZNSt3__117__compressed_pairIPNS_5tupleIJNS_10unique_ptrINS_15__thread_structENS_14default_deleteIS3_EEEEZN12SharedBuffer15cyclicalConsumeEP4FileS9_E3$_2EEENS4_ISB_EEE5firstB7v160006Ev', symObjAddr: 0x3B00, symBinAddr: 0x100013CD4, symSize: 0x24 }
  - { offsetInCU: 0xB6F1, offset: 0x530D1, size: 0x8, addend: 0x0, symName: '__ZNSt3__122__compressed_pair_elemIPNS_5tupleIJNS_10unique_ptrINS_15__thread_structENS_14default_deleteIS3_EEEEZN12SharedBuffer15cyclicalConsumeEP4FileS9_E3$_2EEELi0ELb0EE5__getB7v160006Ev', symObjAddr: 0x3B24, symBinAddr: 0x100013CF8, symSize: 0x14 }
  - { offsetInCU: 0xB717, offset: 0x530F7, size: 0x8, addend: 0x0, symName: '__ZNSt3__110unique_ptrINS_5tupleIJNS0_INS_15__thread_structENS_14default_deleteIS2_EEEEZN12SharedBuffer15cyclicalConsumeEP4FileS8_E3$_2EEENS3_ISA_EEED2B7v160006Ev', symObjAddr: 0x3B38, symBinAddr: 0x100013D0C, symSize: 0x30 }
  - { offsetInCU: 0xB741, offset: 0x53121, size: 0x8, addend: 0x0, symName: '__ZNSt3__110unique_ptrINS_5tupleIJNS0_INS_15__thread_structENS_14default_deleteIS2_EEEEZN12SharedBuffer15cyclicalConsumeEP4FileS8_E3$_2EEENS3_ISA_EEE5resetB7v160006EPSA_', symObjAddr: 0x3B68, symBinAddr: 0x100013D3C, symSize: 0x78 }
  - { offsetInCU: 0xB785, offset: 0x53165, size: 0x8, addend: 0x0, symName: '__ZNSt3__117__compressed_pairIPNS_5tupleIJNS_10unique_ptrINS_15__thread_structENS_14default_deleteIS3_EEEEZN12SharedBuffer15cyclicalConsumeEP4FileS9_E3$_2EEENS4_ISB_EEE6secondB7v160006Ev', symObjAddr: 0x3BE0, symBinAddr: 0x100013DB4, symSize: 0x24 }
  - { offsetInCU: 0xB7AB, offset: 0x5318B, size: 0x8, addend: 0x0, symName: '__ZNKSt3__114default_deleteINS_5tupleIJNS_10unique_ptrINS_15__thread_structENS0_IS3_EEEEZN12SharedBuffer15cyclicalConsumeEP4FileS8_E3$_2EEEEclB7v160006EPSA_', symObjAddr: 0x3C04, symBinAddr: 0x100013DD8, symSize: 0x4C }
  - { offsetInCU: 0xB7DF, offset: 0x531BF, size: 0x8, addend: 0x0, symName: '__ZNSt3__122__compressed_pair_elemINS_14default_deleteINS_5tupleIJNS_10unique_ptrINS_15__thread_structENS1_IS4_EEEEZN12SharedBuffer15cyclicalConsumeEP4FileS9_E3$_2EEEEELi1ELb1EE5__getB7v160006Ev', symObjAddr: 0x3C50, symBinAddr: 0x100013E24, symSize: 0x14 }
  - { offsetInCU: 0xB805, offset: 0x531E5, size: 0x8, addend: 0x0, symName: '__ZNSt3__15tupleIJNS_10unique_ptrINS_15__thread_structENS_14default_deleteIS2_EEEEZN12SharedBuffer15cyclicalConsumeEP4FileS8_E3$_2EED1Ev', symObjAddr: 0x3C64, symBinAddr: 0x100013E38, symSize: 0x2C }
  - { offsetInCU: 0xB832, offset: 0x53212, size: 0x8, addend: 0x0, symName: '__ZNSt3__15tupleIJNS_10unique_ptrINS_15__thread_structENS_14default_deleteIS2_EEEEZN12SharedBuffer15cyclicalConsumeEP4FileS8_E3$_2EED2Ev', symObjAddr: 0x3C90, symBinAddr: 0x100013E64, symSize: 0x2C }
  - { offsetInCU: 0xB85F, offset: 0x5323F, size: 0x8, addend: 0x0, symName: '__ZNSt3__112__tuple_implINS_15__tuple_indicesIJLm0ELm1EEEEJNS_10unique_ptrINS_15__thread_structENS_14default_deleteIS4_EEEEZN12SharedBuffer15cyclicalConsumeEP4FileSA_E3$_2EED1Ev', symObjAddr: 0x3CBC, symBinAddr: 0x100013E90, symSize: 0x2C }
  - { offsetInCU: 0xB88C, offset: 0x5326C, size: 0x8, addend: 0x0, symName: '__ZNSt3__112__tuple_implINS_15__tuple_indicesIJLm0ELm1EEEEJNS_10unique_ptrINS_15__thread_structENS_14default_deleteIS4_EEEEZN12SharedBuffer15cyclicalConsumeEP4FileSA_E3$_2EED2Ev', symObjAddr: 0x3CE8, symBinAddr: 0x100013EBC, symSize: 0x2C }
  - { offsetInCU: 0xB8B9, offset: 0x53299, size: 0x8, addend: 0x0, symName: '__ZNSt3__16threadC2IZN12SharedBuffer15cyclicalConsumeEP4FileS4_E3$_3JEvEEOT_DpOT0_', symObjAddr: 0x3E34, symBinAddr: 0x100013EE8, symSize: 0x148 }
  - { offsetInCU: 0xB934, offset: 0x53314, size: 0x8, addend: 0x0, symName: '__ZNSt3__15tupleIJNS_10unique_ptrINS_15__thread_structENS_14default_deleteIS2_EEEEZN12SharedBuffer15cyclicalConsumeEP4FileS8_E3$_3EEC1B7v160006IJS5_S9_ELi0EEEDpOT_', symObjAddr: 0x3F7C, symBinAddr: 0x100014030, symSize: 0x3C }
  - { offsetInCU: 0xBA2C, offset: 0x5340C, size: 0x8, addend: 0x0, symName: '__ZNSt3__110unique_ptrINS_5tupleIJNS0_INS_15__thread_structENS_14default_deleteIS2_EEEEZN12SharedBuffer15cyclicalConsumeEP4FileS8_E3$_3EEENS3_ISA_EEEC1B7v160006ILb1EvEEPSA_', symObjAddr: 0x3FB8, symBinAddr: 0x10001406C, symSize: 0x34 }
  - { offsetInCU: 0xBA6F, offset: 0x5344F, size: 0x8, addend: 0x0, symName: '__ZNKSt3__110unique_ptrINS_5tupleIJNS0_INS_15__thread_structENS_14default_deleteIS2_EEEEZN12SharedBuffer15cyclicalConsumeEP4FileS8_E3$_3EEENS3_ISA_EEE3getB7v160006Ev', symObjAddr: 0x407C, symBinAddr: 0x100014130, symSize: 0x28 }
  - { offsetInCU: 0xBA95, offset: 0x53475, size: 0x8, addend: 0x0, symName: '__ZNSt3__110unique_ptrINS_5tupleIJNS0_INS_15__thread_structENS_14default_deleteIS2_EEEEZN12SharedBuffer15cyclicalConsumeEP4FileS8_E3$_3EEENS3_ISA_EEE7releaseB7v160006Ev', symObjAddr: 0x40A4, symBinAddr: 0x100014158, symSize: 0x44 }
  - { offsetInCU: 0xBACA, offset: 0x534AA, size: 0x8, addend: 0x0, symName: '__ZNSt3__110unique_ptrINS_5tupleIJNS0_INS_15__thread_structENS_14default_deleteIS2_EEEEZN12SharedBuffer15cyclicalConsumeEP4FileS8_E3$_3EEENS3_ISA_EEED1B7v160006Ev', symObjAddr: 0x40E8, symBinAddr: 0x10001419C, symSize: 0x2C }
  - { offsetInCU: 0xBAF4, offset: 0x534D4, size: 0x8, addend: 0x0, symName: '__ZNSt3__15tupleIJNS_10unique_ptrINS_15__thread_structENS_14default_deleteIS2_EEEEZN12SharedBuffer15cyclicalConsumeEP4FileS8_E3$_3EEC2B7v160006IJS5_S9_ELi0EEEDpOT_', symObjAddr: 0x4114, symBinAddr: 0x1000141C8, symSize: 0x3C }
  - { offsetInCU: 0xBB52, offset: 0x53532, size: 0x8, addend: 0x0, symName: '__ZNSt3__112__tuple_implINS_15__tuple_indicesIJLm0ELm1EEEEJNS_10unique_ptrINS_15__thread_structENS_14default_deleteIS4_EEEEZN12SharedBuffer15cyclicalConsumeEP4FileSA_E3$_3EEC1B7v160006IJLm0ELm1EEJS7_SB_EJEJEJS7_SB_EEENS1_IJXspT_EEEENS_13__tuple_typesIJDpT0_EEENS1_IJXspT1_EEEENSF_IJDpT2_EEEDpOT3_', symObjAddr: 0x4150, symBinAddr: 0x100014204, symSize: 0x3C }
  - { offsetInCU: 0xBC06, offset: 0x535E6, size: 0x8, addend: 0x0, symName: '__ZNSt3__112__tuple_implINS_15__tuple_indicesIJLm0ELm1EEEEJNS_10unique_ptrINS_15__thread_structENS_14default_deleteIS4_EEEEZN12SharedBuffer15cyclicalConsumeEP4FileSA_E3$_3EEC2B7v160006IJLm0ELm1EEJS7_SB_EJEJEJS7_SB_EEENS1_IJXspT_EEEENS_13__tuple_typesIJDpT0_EEENS1_IJXspT1_EEEENSF_IJDpT2_EEEDpOT3_', symObjAddr: 0x418C, symBinAddr: 0x100014240, symSize: 0x48 }
  - { offsetInCU: 0xBCBA, offset: 0x5369A, size: 0x8, addend: 0x0, symName: '__ZNSt3__112__tuple_leafILm1EZN12SharedBuffer15cyclicalConsumeEP4FileS3_E3$_3Lb0EEC2B7v160006IS4_vEEOT_', symObjAddr: 0x41D4, symBinAddr: 0x100014288, symSize: 0x24 }
  - { offsetInCU: 0xBCFD, offset: 0x536DD, size: 0x8, addend: 0x0, symName: '__ZNSt3__110unique_ptrINS_5tupleIJNS0_INS_15__thread_structENS_14default_deleteIS2_EEEEZN12SharedBuffer15cyclicalConsumeEP4FileS8_E3$_3EEENS3_ISA_EEEC2B7v160006ILb1EvEEPSA_', symObjAddr: 0x41F8, symBinAddr: 0x1000142AC, symSize: 0x44 }
  - { offsetInCU: 0xBD40, offset: 0x53720, size: 0x8, addend: 0x0, symName: '__ZNSt3__117__compressed_pairIPNS_5tupleIJNS_10unique_ptrINS_15__thread_structENS_14default_deleteIS3_EEEEZN12SharedBuffer15cyclicalConsumeEP4FileS9_E3$_3EEENS4_ISB_EEEC1B7v160006IRSC_NS_16__value_init_tagEEEOT_OT0_', symObjAddr: 0x423C, symBinAddr: 0x1000142F0, symSize: 0x3C }
  - { offsetInCU: 0xBD98, offset: 0x53778, size: 0x8, addend: 0x0, symName: '__ZNSt3__117__compressed_pairIPNS_5tupleIJNS_10unique_ptrINS_15__thread_structENS_14default_deleteIS3_EEEEZN12SharedBuffer15cyclicalConsumeEP4FileS9_E3$_3EEENS4_ISB_EEEC2B7v160006IRSC_NS_16__value_init_tagEEEOT_OT0_', symObjAddr: 0x4278, symBinAddr: 0x10001432C, symSize: 0x40 }
  - { offsetInCU: 0xBDF0, offset: 0x537D0, size: 0x8, addend: 0x0, symName: '__ZNSt3__122__compressed_pair_elemIPNS_5tupleIJNS_10unique_ptrINS_15__thread_structENS_14default_deleteIS3_EEEEZN12SharedBuffer15cyclicalConsumeEP4FileS9_E3$_3EEELi0ELb0EEC2B7v160006IRSC_vEEOT_', symObjAddr: 0x42B8, symBinAddr: 0x10001436C, symSize: 0x24 }
  - { offsetInCU: 0xBE32, offset: 0x53812, size: 0x8, addend: 0x0, symName: '__ZNSt3__122__compressed_pair_elemINS_14default_deleteINS_5tupleIJNS_10unique_ptrINS_15__thread_structENS1_IS4_EEEEZN12SharedBuffer15cyclicalConsumeEP4FileS9_E3$_3EEEEELi1ELb1EEC2B7v160006ENS_16__value_init_tagE', symObjAddr: 0x42DC, symBinAddr: 0x100014390, symSize: 0x14 }
  - { offsetInCU: 0xBE67, offset: 0x53847, size: 0x8, addend: 0x0, symName: '__ZZN12SharedBuffer15cyclicalConsumeEP4FileS1_ENK3$_3clEv', symObjAddr: 0x4388, symBinAddr: 0x10001443C, symSize: 0x30 }
  - { offsetInCU: 0xBE91, offset: 0x53871, size: 0x8, addend: 0x0, symName: '__ZNSt3__112__tuple_leafILm1EZN12SharedBuffer15cyclicalConsumeEP4FileS3_E3$_3Lb0EE3getB7v160006Ev', symObjAddr: 0x43B8, symBinAddr: 0x10001446C, symSize: 0x14 }
  - { offsetInCU: 0xBEB7, offset: 0x53897, size: 0x8, addend: 0x0, symName: '__ZNKSt3__117__compressed_pairIPNS_5tupleIJNS_10unique_ptrINS_15__thread_structENS_14default_deleteIS3_EEEEZN12SharedBuffer15cyclicalConsumeEP4FileS9_E3$_3EEENS4_ISB_EEE5firstB7v160006Ev', symObjAddr: 0x43CC, symBinAddr: 0x100014480, symSize: 0x24 }
  - { offsetInCU: 0xBEDD, offset: 0x538BD, size: 0x8, addend: 0x0, symName: '__ZNKSt3__122__compressed_pair_elemIPNS_5tupleIJNS_10unique_ptrINS_15__thread_structENS_14default_deleteIS3_EEEEZN12SharedBuffer15cyclicalConsumeEP4FileS9_E3$_3EEELi0ELb0EE5__getB7v160006Ev', symObjAddr: 0x43F0, symBinAddr: 0x1000144A4, symSize: 0x14 }
  - { offsetInCU: 0xBF03, offset: 0x538E3, size: 0x8, addend: 0x0, symName: '__ZNSt3__117__compressed_pairIPNS_5tupleIJNS_10unique_ptrINS_15__thread_structENS_14default_deleteIS3_EEEEZN12SharedBuffer15cyclicalConsumeEP4FileS9_E3$_3EEENS4_ISB_EEE5firstB7v160006Ev', symObjAddr: 0x4404, symBinAddr: 0x1000144B8, symSize: 0x24 }
  - { offsetInCU: 0xBF29, offset: 0x53909, size: 0x8, addend: 0x0, symName: '__ZNSt3__122__compressed_pair_elemIPNS_5tupleIJNS_10unique_ptrINS_15__thread_structENS_14default_deleteIS3_EEEEZN12SharedBuffer15cyclicalConsumeEP4FileS9_E3$_3EEELi0ELb0EE5__getB7v160006Ev', symObjAddr: 0x4428, symBinAddr: 0x1000144DC, symSize: 0x14 }
  - { offsetInCU: 0xBF4F, offset: 0x5392F, size: 0x8, addend: 0x0, symName: '__ZNSt3__110unique_ptrINS_5tupleIJNS0_INS_15__thread_structENS_14default_deleteIS2_EEEEZN12SharedBuffer15cyclicalConsumeEP4FileS8_E3$_3EEENS3_ISA_EEED2B7v160006Ev', symObjAddr: 0x443C, symBinAddr: 0x1000144F0, symSize: 0x30 }
  - { offsetInCU: 0xBF79, offset: 0x53959, size: 0x8, addend: 0x0, symName: '__ZNSt3__110unique_ptrINS_5tupleIJNS0_INS_15__thread_structENS_14default_deleteIS2_EEEEZN12SharedBuffer15cyclicalConsumeEP4FileS8_E3$_3EEENS3_ISA_EEE5resetB7v160006EPSA_', symObjAddr: 0x446C, symBinAddr: 0x100014520, symSize: 0x78 }
  - { offsetInCU: 0xBFBD, offset: 0x5399D, size: 0x8, addend: 0x0, symName: '__ZNSt3__117__compressed_pairIPNS_5tupleIJNS_10unique_ptrINS_15__thread_structENS_14default_deleteIS3_EEEEZN12SharedBuffer15cyclicalConsumeEP4FileS9_E3$_3EEENS4_ISB_EEE6secondB7v160006Ev', symObjAddr: 0x44E4, symBinAddr: 0x100014598, symSize: 0x24 }
  - { offsetInCU: 0xBFE3, offset: 0x539C3, size: 0x8, addend: 0x0, symName: '__ZNKSt3__114default_deleteINS_5tupleIJNS_10unique_ptrINS_15__thread_structENS0_IS3_EEEEZN12SharedBuffer15cyclicalConsumeEP4FileS8_E3$_3EEEEclB7v160006EPSA_', symObjAddr: 0x4508, symBinAddr: 0x1000145BC, symSize: 0x4C }
  - { offsetInCU: 0xC017, offset: 0x539F7, size: 0x8, addend: 0x0, symName: '__ZNSt3__122__compressed_pair_elemINS_14default_deleteINS_5tupleIJNS_10unique_ptrINS_15__thread_structENS1_IS4_EEEEZN12SharedBuffer15cyclicalConsumeEP4FileS9_E3$_3EEEEELi1ELb1EE5__getB7v160006Ev', symObjAddr: 0x4554, symBinAddr: 0x100014608, symSize: 0x14 }
  - { offsetInCU: 0xC03D, offset: 0x53A1D, size: 0x8, addend: 0x0, symName: '__ZNSt3__15tupleIJNS_10unique_ptrINS_15__thread_structENS_14default_deleteIS2_EEEEZN12SharedBuffer15cyclicalConsumeEP4FileS8_E3$_3EED1Ev', symObjAddr: 0x4568, symBinAddr: 0x10001461C, symSize: 0x2C }
  - { offsetInCU: 0xC06A, offset: 0x53A4A, size: 0x8, addend: 0x0, symName: '__ZNSt3__15tupleIJNS_10unique_ptrINS_15__thread_structENS_14default_deleteIS2_EEEEZN12SharedBuffer15cyclicalConsumeEP4FileS8_E3$_3EED2Ev', symObjAddr: 0x4594, symBinAddr: 0x100014648, symSize: 0x2C }
  - { offsetInCU: 0xC097, offset: 0x53A77, size: 0x8, addend: 0x0, symName: '__ZNSt3__112__tuple_implINS_15__tuple_indicesIJLm0ELm1EEEEJNS_10unique_ptrINS_15__thread_structENS_14default_deleteIS4_EEEEZN12SharedBuffer15cyclicalConsumeEP4FileSA_E3$_3EED1Ev', symObjAddr: 0x45C0, symBinAddr: 0x100014674, symSize: 0x2C }
  - { offsetInCU: 0xC0C4, offset: 0x53AA4, size: 0x8, addend: 0x0, symName: '__ZNSt3__112__tuple_implINS_15__tuple_indicesIJLm0ELm1EEEEJNS_10unique_ptrINS_15__thread_structENS_14default_deleteIS4_EEEEZN12SharedBuffer15cyclicalConsumeEP4FileSA_E3$_3EED2Ev', symObjAddr: 0x45EC, symBinAddr: 0x1000146A0, symSize: 0x2C }
  - { offsetInCU: 0xC0F1, offset: 0x53AD1, size: 0x8, addend: 0x0, symName: __ZNSt3__16chrono8durationIxNS_5ratioILl1ELl1000EEEE4zeroB7v160006Ev, symObjAddr: 0x4648, symBinAddr: 0x1000146FC, symSize: 0x3C }
  - { offsetInCU: 0xC10F, offset: 0x53AEF, size: 0x8, addend: 0x0, symName: __ZNKSt3__16chrono13__duration_ltINS0_8durationIxNS_5ratioILl1ELl1000EEEEES5_EclB7v160006ERKS5_S8_, symObjAddr: 0x4750, symBinAddr: 0x100014804, symSize: 0x4C }
  - { offsetInCU: 0xC153, offset: 0x53B33, size: 0x8, addend: 0x0, symName: __ZNKSt3__16chrono8durationIxNS_5ratioILl1ELl1000EEEE5countB7v160006Ev, symObjAddr: 0x479C, symBinAddr: 0x100014850, symSize: 0x18 }
  - { offsetInCU: 0xC179, offset: 0x53B59, size: 0x8, addend: 0x0, symName: __ZNSt3__16chrono8durationIxNS_5ratioILl1ELl1000EEEEC1B7v160006IxEERKT_PNS_9enable_ifIXaasr14is_convertibleIS8_xEE5valueooL_ZNS_17integral_constantIbLb0EE5valueEEntsr23treat_as_floating_pointIS6_EE5valueEvE4typeE, symObjAddr: 0x47B4, symBinAddr: 0x100014868, symSize: 0x3C }
  - { offsetInCU: 0xC1C6, offset: 0x53BA6, size: 0x8, addend: 0x0, symName: __ZNSt3__16chrono8durationIxNS_5ratioILl1ELl1000EEEEC2B7v160006IxEERKT_PNS_9enable_ifIXaasr14is_convertibleIS8_xEE5valueooL_ZNS_17integral_constantIbLb0EE5valueEEntsr23treat_as_floating_pointIS6_EE5valueEvE4typeE, symObjAddr: 0x47F0, symBinAddr: 0x1000148A4, symSize: 0x28 }
  - { offsetInCU: 0xC213, offset: 0x53BF3, size: 0x8, addend: 0x0, symName: __ZNSt3__16chrono8durationIeNS_5ratioILl1ELl1000EEEEC1B7v160006IxS3_EERKNS1_IT_T0_EEPNS_9enable_ifIXaasr13__no_overflowIS7_S3_EE5valueooL_ZNS_17integral_constantIbLb1EE5valueEEaaeqsr13__no_overflowIS7_S3_E4typeE3denLi1Entsr23treat_as_floating_pointIS6_EE5valueEvE4typeE, symObjAddr: 0x4890, symBinAddr: 0x100014944, symSize: 0x3C }
  - { offsetInCU: 0xC26A, offset: 0x53C4A, size: 0x8, addend: 0x0, symName: __ZNKSt3__16chrono8durationIeNS_5ratioILl1ELl1000EEEE5countB7v160006Ev, symObjAddr: 0x48CC, symBinAddr: 0x100014980, symSize: 0x18 }
  - { offsetInCU: 0xC290, offset: 0x53C70, size: 0x8, addend: 0x0, symName: __ZNSt3__16chrono8durationIeNS_5ratioILl1ELl1000EEEEC1B7v160006IeNS2_ILl1ELl1EEEEERKNS1_IT_T0_EEPNS_9enable_ifIXaasr13__no_overflowIS8_S3_EE5valueooL_ZNS_17integral_constantIbLb1EE5valueEEaaeqsr13__no_overflowIS8_S3_E4typeE3denLi1Entsr23treat_as_floating_pointIS7_EE5valueEvE4typeE, symObjAddr: 0x48E4, symBinAddr: 0x100014998, symSize: 0x3C }
  - { offsetInCU: 0xC2E7, offset: 0x53CC7, size: 0x8, addend: 0x0, symName: __ZNSt3__16chrono8durationIeNS_5ratioILl1ELl1000EEEEC2B7v160006IxS3_EERKNS1_IT_T0_EEPNS_9enable_ifIXaasr13__no_overflowIS7_S3_EE5valueooL_ZNS_17integral_constantIbLb1EE5valueEEaaeqsr13__no_overflowIS7_S3_E4typeE3denLi1Entsr23treat_as_floating_pointIS6_EE5valueEvE4typeE, symObjAddr: 0x4920, symBinAddr: 0x1000149D4, symSize: 0x48 }
  - { offsetInCU: 0xC348, offset: 0x53D28, size: 0x8, addend: 0x0, symName: __ZNKSt3__16chrono15__duration_castINS0_8durationIxNS_5ratioILl1ELl1000EEEEENS2_IeS4_EENS3_ILl1ELl1EEELb1ELb1EEclB7v160006ERKS5_, symObjAddr: 0x4998, symBinAddr: 0x100014A4C, symSize: 0x44 }
  - { offsetInCU: 0xC37C, offset: 0x53D5C, size: 0x8, addend: 0x0, symName: __ZNSt3__16chrono8durationIeNS_5ratioILl1ELl1000EEEEC1B7v160006IeEERKT_PNS_9enable_ifIXaasr14is_convertibleIS8_eEE5valueooL_ZNS_17integral_constantIbLb1EE5valueEEntsr23treat_as_floating_pointIS6_EE5valueEvE4typeE, symObjAddr: 0x49DC, symBinAddr: 0x100014A90, symSize: 0x3C }
  - { offsetInCU: 0xC3C9, offset: 0x53DA9, size: 0x8, addend: 0x0, symName: __ZNSt3__16chrono8durationIeNS_5ratioILl1ELl1000EEEEC2B7v160006IeEERKT_PNS_9enable_ifIXaasr14is_convertibleIS8_eEE5valueooL_ZNS_17integral_constantIbLb1EE5valueEEntsr23treat_as_floating_pointIS6_EE5valueEvE4typeE, symObjAddr: 0x4A18, symBinAddr: 0x100014ACC, symSize: 0x28 }
  - { offsetInCU: 0xC416, offset: 0x53DF6, size: 0x8, addend: 0x0, symName: __ZNSt3__16chrono8durationIeNS_5ratioILl1ELl1000EEEEC2B7v160006IeNS2_ILl1ELl1EEEEERKNS1_IT_T0_EEPNS_9enable_ifIXaasr13__no_overflowIS8_S3_EE5valueooL_ZNS_17integral_constantIbLb1EE5valueEEaaeqsr13__no_overflowIS8_S3_E4typeE3denLi1Entsr23treat_as_floating_pointIS7_EE5valueEvE4typeE, symObjAddr: 0x4A40, symBinAddr: 0x100014AF4, symSize: 0x48 }
  - { offsetInCU: 0xC46D, offset: 0x53E4D, size: 0x8, addend: 0x0, symName: __ZNSt3__16chrono8durationIxNS_5ratioILl1ELl1000000000EEEEC1B7v160006IxNS2_ILl1ELl1000EEEEERKNS1_IT_T0_EEPNS_9enable_ifIXaasr13__no_overflowIS8_S3_EE5valueooL_ZNS_17integral_constantIbLb0EE5valueEEaaeqsr13__no_overflowIS8_S3_E4typeE3denLi1Entsr23treat_as_floating_pointIS7_EE5valueEvE4typeE, symObjAddr: 0x4BBC, symBinAddr: 0x100014C70, symSize: 0x3C }
  - { offsetInCU: 0xC4C4, offset: 0x53EA4, size: 0x8, addend: 0x0, symName: __ZNSt3__16chrono8durationIxNS_5ratioILl1ELl1000000000EEEEC2B7v160006IxNS2_ILl1ELl1000EEEEERKNS1_IT_T0_EEPNS_9enable_ifIXaasr13__no_overflowIS8_S3_EE5valueooL_ZNS_17integral_constantIbLb0EE5valueEEaaeqsr13__no_overflowIS8_S3_E4typeE3denLi1Entsr23treat_as_floating_pointIS7_EE5valueEvE4typeE, symObjAddr: 0x4BF8, symBinAddr: 0x100014CAC, symSize: 0x50 }
  - { offsetInCU: 0xC51B, offset: 0x53EFB, size: 0x8, addend: 0x0, symName: '__ZNSt3__16threadC2IZN12SharedBuffer10resConsumeEP4FileE3$_4JEvEEOT_DpOT0_', symObjAddr: 0x4C48, symBinAddr: 0x100014CFC, symSize: 0x148 }
  - { offsetInCU: 0xC596, offset: 0x53F76, size: 0x8, addend: 0x0, symName: '__ZNSt3__15tupleIJNS_10unique_ptrINS_15__thread_structENS_14default_deleteIS2_EEEEZN12SharedBuffer10resConsumeEP4FileE3$_4EEC1B7v160006IJS5_S9_ELi0EEEDpOT_', symObjAddr: 0x4D90, symBinAddr: 0x100014E44, symSize: 0x3C }
  - { offsetInCU: 0xC68E, offset: 0x5406E, size: 0x8, addend: 0x0, symName: '__ZNSt3__110unique_ptrINS_5tupleIJNS0_INS_15__thread_structENS_14default_deleteIS2_EEEEZN12SharedBuffer10resConsumeEP4FileE3$_4EEENS3_ISA_EEEC1B7v160006ILb1EvEEPSA_', symObjAddr: 0x4DCC, symBinAddr: 0x100014E80, symSize: 0x34 }
  - { offsetInCU: 0xC6D1, offset: 0x540B1, size: 0x8, addend: 0x0, symName: '__ZNKSt3__110unique_ptrINS_5tupleIJNS0_INS_15__thread_structENS_14default_deleteIS2_EEEEZN12SharedBuffer10resConsumeEP4FileE3$_4EEENS3_ISA_EEE3getB7v160006Ev', symObjAddr: 0x4E90, symBinAddr: 0x100014F44, symSize: 0x28 }
  - { offsetInCU: 0xC6F7, offset: 0x540D7, size: 0x8, addend: 0x0, symName: '__ZNSt3__110unique_ptrINS_5tupleIJNS0_INS_15__thread_structENS_14default_deleteIS2_EEEEZN12SharedBuffer10resConsumeEP4FileE3$_4EEENS3_ISA_EEE7releaseB7v160006Ev', symObjAddr: 0x4EB8, symBinAddr: 0x100014F6C, symSize: 0x44 }
  - { offsetInCU: 0xC72C, offset: 0x5410C, size: 0x8, addend: 0x0, symName: '__ZNSt3__110unique_ptrINS_5tupleIJNS0_INS_15__thread_structENS_14default_deleteIS2_EEEEZN12SharedBuffer10resConsumeEP4FileE3$_4EEENS3_ISA_EEED1B7v160006Ev', symObjAddr: 0x4EFC, symBinAddr: 0x100014FB0, symSize: 0x2C }
  - { offsetInCU: 0xC756, offset: 0x54136, size: 0x8, addend: 0x0, symName: '__ZNSt3__15tupleIJNS_10unique_ptrINS_15__thread_structENS_14default_deleteIS2_EEEEZN12SharedBuffer10resConsumeEP4FileE3$_4EEC2B7v160006IJS5_S9_ELi0EEEDpOT_', symObjAddr: 0x4F28, symBinAddr: 0x100014FDC, symSize: 0x3C }
  - { offsetInCU: 0xC7B4, offset: 0x54194, size: 0x8, addend: 0x0, symName: '__ZNSt3__112__tuple_implINS_15__tuple_indicesIJLm0ELm1EEEEJNS_10unique_ptrINS_15__thread_structENS_14default_deleteIS4_EEEEZN12SharedBuffer10resConsumeEP4FileE3$_4EEC1B7v160006IJLm0ELm1EEJS7_SB_EJEJEJS7_SB_EEENS1_IJXspT_EEEENS_13__tuple_typesIJDpT0_EEENS1_IJXspT1_EEEENSF_IJDpT2_EEEDpOT3_', symObjAddr: 0x4F64, symBinAddr: 0x100015018, symSize: 0x3C }
  - { offsetInCU: 0xC868, offset: 0x54248, size: 0x8, addend: 0x0, symName: '__ZNSt3__112__tuple_implINS_15__tuple_indicesIJLm0ELm1EEEEJNS_10unique_ptrINS_15__thread_structENS_14default_deleteIS4_EEEEZN12SharedBuffer10resConsumeEP4FileE3$_4EEC2B7v160006IJLm0ELm1EEJS7_SB_EJEJEJS7_SB_EEENS1_IJXspT_EEEENS_13__tuple_typesIJDpT0_EEENS1_IJXspT1_EEEENSF_IJDpT2_EEEDpOT3_', symObjAddr: 0x4FA0, symBinAddr: 0x100015054, symSize: 0x48 }
  - { offsetInCU: 0xC91C, offset: 0x542FC, size: 0x8, addend: 0x0, symName: '__ZNSt3__112__tuple_leafILm1EZN12SharedBuffer10resConsumeEP4FileE3$_4Lb0EEC2B7v160006IS4_vEEOT_', symObjAddr: 0x4FE8, symBinAddr: 0x10001509C, symSize: 0x24 }
  - { offsetInCU: 0xC95F, offset: 0x5433F, size: 0x8, addend: 0x0, symName: '__ZNSt3__110unique_ptrINS_5tupleIJNS0_INS_15__thread_structENS_14default_deleteIS2_EEEEZN12SharedBuffer10resConsumeEP4FileE3$_4EEENS3_ISA_EEEC2B7v160006ILb1EvEEPSA_', symObjAddr: 0x500C, symBinAddr: 0x1000150C0, symSize: 0x44 }
  - { offsetInCU: 0xC9A2, offset: 0x54382, size: 0x8, addend: 0x0, symName: '__ZNSt3__117__compressed_pairIPNS_5tupleIJNS_10unique_ptrINS_15__thread_structENS_14default_deleteIS3_EEEEZN12SharedBuffer10resConsumeEP4FileE3$_4EEENS4_ISB_EEEC1B7v160006IRSC_NS_16__value_init_tagEEEOT_OT0_', symObjAddr: 0x5050, symBinAddr: 0x100015104, symSize: 0x3C }
  - { offsetInCU: 0xC9FA, offset: 0x543DA, size: 0x8, addend: 0x0, symName: '__ZNSt3__117__compressed_pairIPNS_5tupleIJNS_10unique_ptrINS_15__thread_structENS_14default_deleteIS3_EEEEZN12SharedBuffer10resConsumeEP4FileE3$_4EEENS4_ISB_EEEC2B7v160006IRSC_NS_16__value_init_tagEEEOT_OT0_', symObjAddr: 0x508C, symBinAddr: 0x100015140, symSize: 0x40 }
  - { offsetInCU: 0xCA52, offset: 0x54432, size: 0x8, addend: 0x0, symName: '__ZNSt3__122__compressed_pair_elemIPNS_5tupleIJNS_10unique_ptrINS_15__thread_structENS_14default_deleteIS3_EEEEZN12SharedBuffer10resConsumeEP4FileE3$_4EEELi0ELb0EEC2B7v160006IRSC_vEEOT_', symObjAddr: 0x50CC, symBinAddr: 0x100015180, symSize: 0x24 }
  - { offsetInCU: 0xCA94, offset: 0x54474, size: 0x8, addend: 0x0, symName: '__ZNSt3__122__compressed_pair_elemINS_14default_deleteINS_5tupleIJNS_10unique_ptrINS_15__thread_structENS1_IS4_EEEEZN12SharedBuffer10resConsumeEP4FileE3$_4EEEEELi1ELb1EEC2B7v160006ENS_16__value_init_tagE', symObjAddr: 0x50F0, symBinAddr: 0x1000151A4, symSize: 0x14 }
  - { offsetInCU: 0xCAC9, offset: 0x544A9, size: 0x8, addend: 0x0, symName: '__ZZN12SharedBuffer10resConsumeEP4FileENK3$_4clEv', symObjAddr: 0x519C, symBinAddr: 0x100015250, symSize: 0x30 }
  - { offsetInCU: 0xCAF3, offset: 0x544D3, size: 0x8, addend: 0x0, symName: '__ZNSt3__112__tuple_leafILm1EZN12SharedBuffer10resConsumeEP4FileE3$_4Lb0EE3getB7v160006Ev', symObjAddr: 0x51CC, symBinAddr: 0x100015280, symSize: 0x14 }
  - { offsetInCU: 0xCB19, offset: 0x544F9, size: 0x8, addend: 0x0, symName: '__ZNKSt3__117__compressed_pairIPNS_5tupleIJNS_10unique_ptrINS_15__thread_structENS_14default_deleteIS3_EEEEZN12SharedBuffer10resConsumeEP4FileE3$_4EEENS4_ISB_EEE5firstB7v160006Ev', symObjAddr: 0x51E0, symBinAddr: 0x100015294, symSize: 0x24 }
  - { offsetInCU: 0xCB3F, offset: 0x5451F, size: 0x8, addend: 0x0, symName: '__ZNKSt3__122__compressed_pair_elemIPNS_5tupleIJNS_10unique_ptrINS_15__thread_structENS_14default_deleteIS3_EEEEZN12SharedBuffer10resConsumeEP4FileE3$_4EEELi0ELb0EE5__getB7v160006Ev', symObjAddr: 0x5204, symBinAddr: 0x1000152B8, symSize: 0x14 }
  - { offsetInCU: 0xCB65, offset: 0x54545, size: 0x8, addend: 0x0, symName: '__ZNSt3__117__compressed_pairIPNS_5tupleIJNS_10unique_ptrINS_15__thread_structENS_14default_deleteIS3_EEEEZN12SharedBuffer10resConsumeEP4FileE3$_4EEENS4_ISB_EEE5firstB7v160006Ev', symObjAddr: 0x5218, symBinAddr: 0x1000152CC, symSize: 0x24 }
  - { offsetInCU: 0xCB8B, offset: 0x5456B, size: 0x8, addend: 0x0, symName: '__ZNSt3__122__compressed_pair_elemIPNS_5tupleIJNS_10unique_ptrINS_15__thread_structENS_14default_deleteIS3_EEEEZN12SharedBuffer10resConsumeEP4FileE3$_4EEELi0ELb0EE5__getB7v160006Ev', symObjAddr: 0x523C, symBinAddr: 0x1000152F0, symSize: 0x14 }
  - { offsetInCU: 0xCBB1, offset: 0x54591, size: 0x8, addend: 0x0, symName: '__ZNSt3__110unique_ptrINS_5tupleIJNS0_INS_15__thread_structENS_14default_deleteIS2_EEEEZN12SharedBuffer10resConsumeEP4FileE3$_4EEENS3_ISA_EEED2B7v160006Ev', symObjAddr: 0x5250, symBinAddr: 0x100015304, symSize: 0x30 }
  - { offsetInCU: 0xCBDB, offset: 0x545BB, size: 0x8, addend: 0x0, symName: '__ZNSt3__110unique_ptrINS_5tupleIJNS0_INS_15__thread_structENS_14default_deleteIS2_EEEEZN12SharedBuffer10resConsumeEP4FileE3$_4EEENS3_ISA_EEE5resetB7v160006EPSA_', symObjAddr: 0x5280, symBinAddr: 0x100015334, symSize: 0x78 }
  - { offsetInCU: 0xCC1F, offset: 0x545FF, size: 0x8, addend: 0x0, symName: '__ZNSt3__117__compressed_pairIPNS_5tupleIJNS_10unique_ptrINS_15__thread_structENS_14default_deleteIS3_EEEEZN12SharedBuffer10resConsumeEP4FileE3$_4EEENS4_ISB_EEE6secondB7v160006Ev', symObjAddr: 0x52F8, symBinAddr: 0x1000153AC, symSize: 0x24 }
  - { offsetInCU: 0xCC45, offset: 0x54625, size: 0x8, addend: 0x0, symName: '__ZNKSt3__114default_deleteINS_5tupleIJNS_10unique_ptrINS_15__thread_structENS0_IS3_EEEEZN12SharedBuffer10resConsumeEP4FileE3$_4EEEEclB7v160006EPSA_', symObjAddr: 0x531C, symBinAddr: 0x1000153D0, symSize: 0x4C }
  - { offsetInCU: 0xCC79, offset: 0x54659, size: 0x8, addend: 0x0, symName: '__ZNSt3__122__compressed_pair_elemINS_14default_deleteINS_5tupleIJNS_10unique_ptrINS_15__thread_structENS1_IS4_EEEEZN12SharedBuffer10resConsumeEP4FileE3$_4EEEEELi1ELb1EE5__getB7v160006Ev', symObjAddr: 0x5368, symBinAddr: 0x10001541C, symSize: 0x14 }
  - { offsetInCU: 0xCC9F, offset: 0x5467F, size: 0x8, addend: 0x0, symName: '__ZNSt3__15tupleIJNS_10unique_ptrINS_15__thread_structENS_14default_deleteIS2_EEEEZN12SharedBuffer10resConsumeEP4FileE3$_4EED1Ev', symObjAddr: 0x537C, symBinAddr: 0x100015430, symSize: 0x2C }
  - { offsetInCU: 0xCCCC, offset: 0x546AC, size: 0x8, addend: 0x0, symName: '__ZNSt3__15tupleIJNS_10unique_ptrINS_15__thread_structENS_14default_deleteIS2_EEEEZN12SharedBuffer10resConsumeEP4FileE3$_4EED2Ev', symObjAddr: 0x53A8, symBinAddr: 0x10001545C, symSize: 0x2C }
  - { offsetInCU: 0xCCF9, offset: 0x546D9, size: 0x8, addend: 0x0, symName: '__ZNSt3__112__tuple_implINS_15__tuple_indicesIJLm0ELm1EEEEJNS_10unique_ptrINS_15__thread_structENS_14default_deleteIS4_EEEEZN12SharedBuffer10resConsumeEP4FileE3$_4EED1Ev', symObjAddr: 0x53D4, symBinAddr: 0x100015488, symSize: 0x2C }
  - { offsetInCU: 0xCD26, offset: 0x54706, size: 0x8, addend: 0x0, symName: '__ZNSt3__112__tuple_implINS_15__tuple_indicesIJLm0ELm1EEEEJNS_10unique_ptrINS_15__thread_structENS_14default_deleteIS4_EEEEZN12SharedBuffer10resConsumeEP4FileE3$_4EED2Ev', symObjAddr: 0x5400, symBinAddr: 0x1000154B4, symSize: 0x2C }
  - { offsetInCU: 0x3F, offset: 0x54870, size: 0x8, addend: 0x0, symName: __ZL11ITEM_FIELDS, symObjAddr: 0x47BB8, symBinAddr: 0x100020498, symSize: 0x0 }
  - { offsetInCU: 0x5483, offset: 0x59CB4, size: 0x8, addend: 0x0, symName: __ZNSt3__1geB7v160006IP4ItemEEbRKNS_11__wrap_iterIT_EES7_, symObjAddr: 0x508C, symBinAddr: 0x100016CF8, symSize: 0x34 }
  - { offsetInCU: 0x54C6, offset: 0x59CF7, size: 0x8, addend: 0x0, symName: __ZNSt3__1miB7v160006IP4ItemS2_EEDTmicldtfp_4baseEcldtfp0_4baseEERKNS_11__wrap_iterIT_EERKNS4_IT0_EE, symObjAddr: 0x5260, symBinAddr: 0x100016ECC, symSize: 0x48 }
  - { offsetInCU: 0x5512, offset: 0x59D43, size: 0x8, addend: 0x0, symName: __ZNSt3__1ltB7v160006IP4ItemEEbRKNS_11__wrap_iterIT_EES7_, symObjAddr: 0x5334, symBinAddr: 0x100016FA0, symSize: 0x48 }
  - { offsetInCU: 0x5952, offset: 0x5A183, size: 0x8, addend: 0x0, symName: __ZNSt3__114__thread_proxyB7v160006INS_5tupleIJNS_10unique_ptrINS_15__thread_structENS_14default_deleteIS3_EEEEM12SharedBufferFvP4FileS9_EPS7_S9_S9_EEEEEPvSE_, symObjAddr: 0x5C10, symBinAddr: 0x1000172C4, symSize: 0x90 }
  - { offsetInCU: 0x59C1, offset: 0x5A1F2, size: 0x8, addend: 0x0, symName: __ZNSt3__13getB7v160006ILm0EJNS_10unique_ptrINS_15__thread_structENS_14default_deleteIS2_EEEEM12SharedBufferFvP4FileS8_EPS6_S8_S8_EEERNS_13tuple_elementIXT_ENS_5tupleIJDpT0_EEEE4typeERSG_, symObjAddr: 0x63A4, symBinAddr: 0x100017660, symSize: 0x24 }
  - { offsetInCU: 0x5A18, offset: 0x5A249, size: 0x8, addend: 0x0, symName: __ZNSt3__116__thread_executeB7v160006INS_10unique_ptrINS_15__thread_structENS_14default_deleteIS2_EEEEM12SharedBufferFvP4FileS8_EJPS6_S8_S8_EJLm2ELm3ELm4EEEEvRNS_5tupleIJT_T0_DpT1_EEENS_15__tuple_indicesIJXspT2_EEEE, symObjAddr: 0x63C8, symBinAddr: 0x100017684, symSize: 0x5C }
  - { offsetInCU: 0x5A8E, offset: 0x5A2BF, size: 0x8, addend: 0x0, symName: __ZNSt3__18__invokeB7v160006IM12SharedBufferFvP4FileS3_EPS1_JS3_S3_EvEEDTcldsdeclsr3stdE7declvalIT0_EEclsr3stdE7declvalIT_EEspclsr3stdE7declvalIT1_EEEEOS8_OS7_DpOS9_, symObjAddr: 0x6464, symBinAddr: 0x1000176E0, symSize: 0x98 }
  - { offsetInCU: 0x5B09, offset: 0x5A33A, size: 0x8, addend: 0x0, symName: __ZNSt3__13getB7v160006ILm1EJNS_10unique_ptrINS_15__thread_structENS_14default_deleteIS2_EEEEM12SharedBufferFvP4FileS8_EPS6_S8_S8_EEERNS_13tuple_elementIXT_ENS_5tupleIJDpT0_EEEE4typeERSG_, symObjAddr: 0x64FC, symBinAddr: 0x100017778, symSize: 0x28 }
  - { offsetInCU: 0x5B60, offset: 0x5A391, size: 0x8, addend: 0x0, symName: __ZNSt3__13getB7v160006ILm2EJNS_10unique_ptrINS_15__thread_structENS_14default_deleteIS2_EEEEM12SharedBufferFvP4FileS8_EPS6_S8_S8_EEERNS_13tuple_elementIXT_ENS_5tupleIJDpT0_EEEE4typeERSG_, symObjAddr: 0x6524, symBinAddr: 0x1000177A0, symSize: 0x28 }
  - { offsetInCU: 0x5BB7, offset: 0x5A3E8, size: 0x8, addend: 0x0, symName: __ZNSt3__13getB7v160006ILm3EJNS_10unique_ptrINS_15__thread_structENS_14default_deleteIS2_EEEEM12SharedBufferFvP4FileS8_EPS6_S8_S8_EEERNS_13tuple_elementIXT_ENS_5tupleIJDpT0_EEEE4typeERSG_, symObjAddr: 0x654C, symBinAddr: 0x1000177C8, symSize: 0x28 }
  - { offsetInCU: 0x5C0E, offset: 0x5A43F, size: 0x8, addend: 0x0, symName: __ZNSt3__13getB7v160006ILm4EJNS_10unique_ptrINS_15__thread_structENS_14default_deleteIS2_EEEEM12SharedBufferFvP4FileS8_EPS6_S8_S8_EEERNS_13tuple_elementIXT_ENS_5tupleIJDpT0_EEEE4typeERSG_, symObjAddr: 0x6574, symBinAddr: 0x1000177F0, symSize: 0x28 }
  - { offsetInCU: 0x5D45, offset: 0x5A576, size: 0x8, addend: 0x0, symName: __ZL8ITEM_MIN, symObjAddr: 0x47BD0, symBinAddr: 0x1000204B0, symSize: 0x0 }
  - { offsetInCU: 0x5E47, offset: 0x5A678, size: 0x8, addend: 0x0, symName: __ZL8ITEM_MAX, symObjAddr: 0x47C18, symBinAddr: 0x1000204F8, symSize: 0x0 }
  - { offsetInCU: 0x810E, offset: 0x5C93F, size: 0x8, addend: 0x0, symName: __ZN8SortPlanC2EP4Plan, symObjAddr: 0xC8, symBinAddr: 0x100015784, symSize: 0xC0 }
  - { offsetInCU: 0x815C, offset: 0x5C98D, size: 0x8, addend: 0x0, symName: __ZN8SortPlanC1EP4Plan, symObjAddr: 0x188, symBinAddr: 0x100015844, symSize: 0x34 }
  - { offsetInCU: 0x8196, offset: 0x5C9C7, size: 0x8, addend: 0x0, symName: __ZN8SortPlanD2Ev, symObjAddr: 0x1BC, symBinAddr: 0x100015878, symSize: 0xAC }
  - { offsetInCU: 0x81D6, offset: 0x5CA07, size: 0x8, addend: 0x0, symName: __ZN8SortPlanD1Ev, symObjAddr: 0x274, symBinAddr: 0x100015924, symSize: 0x2C }
  - { offsetInCU: 0x8202, offset: 0x5CA33, size: 0x8, addend: 0x0, symName: __ZN8SortPlanD0Ev, symObjAddr: 0x2A0, symBinAddr: 0x100015950, symSize: 0x30 }
  - { offsetInCU: 0x822E, offset: 0x5CA5F, size: 0x8, addend: 0x0, symName: __ZNK8SortPlan4initEv, symObjAddr: 0x2D0, symBinAddr: 0x100015980, symSize: 0x94 }
  - { offsetInCU: 0x8410, offset: 0x5CC41, size: 0x8, addend: 0x0, symName: __ZN12SortIteratorC1EPK8SortPlan, symObjAddr: 0x364, symBinAddr: 0x100015A14, symSize: 0x34 }
  - { offsetInCU: 0x8449, offset: 0x5CC7A, size: 0x8, addend: 0x0, symName: __ZN12SortIteratorC2EPK8SortPlan, symObjAddr: 0x398, symBinAddr: 0x100015A48, symSize: 0x338 }
  - { offsetInCU: 0x84BE, offset: 0x5CCEF, size: 0x8, addend: 0x0, symName: __ZN12SortIteratorD2Ev, symObjAddr: 0x7C4, symBinAddr: 0x100015D80, symSize: 0x234 }
  - { offsetInCU: 0x851B, offset: 0x5CD4C, size: 0x8, addend: 0x0, symName: __ZN12SortIteratorD1Ev, symObjAddr: 0x9F8, symBinAddr: 0x100015FB4, symSize: 0x2C }
  - { offsetInCU: 0x8547, offset: 0x5CD78, size: 0x8, addend: 0x0, symName: __ZN12SortIteratorD0Ev, symObjAddr: 0xA24, symBinAddr: 0x100015FE0, symSize: 0x30 }
  - { offsetInCU: 0x8573, offset: 0x5CDA4, size: 0x8, addend: 0x0, symName: __ZN12SortIterator4nextEv, symObjAddr: 0xA54, symBinAddr: 0x100016010, symSize: 0x4F0 }
  - { offsetInCU: 0x86C3, offset: 0x5CEF4, size: 0x8, addend: 0x0, symName: '__ZN12SortIterator9QuickSortINSt3__111__wrap_iterIP4ItemEEZNS_4nextEvE3$_0EEvT_S7_T0_', symObjAddr: 0x1084, symBinAddr: 0x100016500, symSize: 0x32C }
  - { offsetInCU: 0x8753, offset: 0x5CF84, size: 0x8, addend: 0x0, symName: __ZNSt3__16vectorI4ItemNS_9allocatorIS1_EEE5beginB7v160006Ev, symObjAddr: 0x13B0, symBinAddr: 0x10001682C, symSize: 0x30 }
  - { offsetInCU: 0x877B, offset: 0x5CFAC, size: 0x8, addend: 0x0, symName: __ZNKSt3__111__wrap_iterIP4ItemEplB7v160006El, symObjAddr: 0x13E0, symBinAddr: 0x10001685C, symSize: 0x3C }
  - { offsetInCU: 0x87BD, offset: 0x5CFEE, size: 0x8, addend: 0x0, symName: __ZN12SortIterator13MultiwayMergeEv, symObjAddr: 0x141C, symBinAddr: 0x100016898, symSize: 0x318 }
  - { offsetInCU: 0x889E, offset: 0x5D0CF, size: 0x8, addend: 0x0, symName: __ZN12SortIterator10GetRecordsEPPNSt3__16vectorI4ItemNS0_9allocatorIS2_EEEEPPj, symObjAddr: 0x1734, symBinAddr: 0x100016BB0, symSize: 0x38 }
  - { offsetInCU: 0x8909, offset: 0x5D13A, size: 0x8, addend: 0x0, symName: __ZNSt3__16threadC1IM12SharedBufferFvP4FileS4_EJRPS2_RS4_S9_EvEEOT_DpOT0_, symObjAddr: 0x176C, symBinAddr: 0x100016BE8, symSize: 0x4C }
  - { offsetInCU: 0x89C4, offset: 0x5D1F5, size: 0x8, addend: 0x0, symName: __ZNSt3__16vectorI4ItemNS_9allocatorIS1_EEE11__make_iterB7v160006EPS1_, symObjAddr: 0x4FC8, symBinAddr: 0x100016C34, symSize: 0x34 }
  - { offsetInCU: 0x89F9, offset: 0x5D22A, size: 0x8, addend: 0x0, symName: __ZNSt3__111__wrap_iterIP4ItemEC1B7v160006EPKvS2_, symObjAddr: 0x4FFC, symBinAddr: 0x100016C68, symSize: 0x3C }
  - { offsetInCU: 0x8A3F, offset: 0x5D270, size: 0x8, addend: 0x0, symName: __ZNSt3__111__wrap_iterIP4ItemEC2B7v160006EPKvS2_, symObjAddr: 0x5038, symBinAddr: 0x100016CA4, symSize: 0x24 }
  - { offsetInCU: 0x8A85, offset: 0x5D2B6, size: 0x8, addend: 0x0, symName: __ZNSt3__111__wrap_iterIP4ItemEpLB7v160006El, symObjAddr: 0x505C, symBinAddr: 0x100016CC8, symSize: 0x30 }
  - { offsetInCU: 0x8AB9, offset: 0x5D2EA, size: 0x8, addend: 0x0, symName: __ZNKSt3__111__wrap_iterIP4ItemEmiB7v160006El, symObjAddr: 0x50C0, symBinAddr: 0x100016D2C, symSize: 0x3C }
  - { offsetInCU: 0x8AEC, offset: 0x5D31D, size: 0x8, addend: 0x0, symName: __Z6getmidINSt3__111__wrap_iterIP4ItemEEET_S5_S5_S5_, symObjAddr: 0x50FC, symBinAddr: 0x100016D68, symSize: 0x164 }
  - { offsetInCU: 0x8B3E, offset: 0x5D36F, size: 0x8, addend: 0x0, symName: __Z4swapI4ItemEvRT_S2_, symObjAddr: 0x52A8, symBinAddr: 0x100016F14, symSize: 0x74 }
  - { offsetInCU: 0x8B8B, offset: 0x5D3BC, size: 0x8, addend: 0x0, symName: __ZNKSt3__111__wrap_iterIP4ItemEdeB7v160006Ev, symObjAddr: 0x531C, symBinAddr: 0x100016F88, symSize: 0x18 }
  - { offsetInCU: 0x8BB1, offset: 0x5D3E2, size: 0x8, addend: 0x0, symName: '__ZZN12SortIterator4nextEvENK3$_0clERK4ItemS3_', symObjAddr: 0x537C, symBinAddr: 0x100016FE8, symSize: 0x34 }
  - { offsetInCU: 0x8BF7, offset: 0x5D428, size: 0x8, addend: 0x0, symName: __ZNSt3__111__wrap_iterIP4ItemEmmB7v160006Ei, symObjAddr: 0x53B0, symBinAddr: 0x10001701C, symSize: 0x34 }
  - { offsetInCU: 0x8C36, offset: 0x5D467, size: 0x8, addend: 0x0, symName: __ZNSt3__111__wrap_iterIP4ItemEppB7v160006Ei, symObjAddr: 0x53E4, symBinAddr: 0x100017050, symSize: 0x34 }
  - { offsetInCU: 0x8C75, offset: 0x5D4A6, size: 0x8, addend: 0x0, symName: __ZNKSt3__111__wrap_iterIP4ItemE4baseB7v160006Ev, symObjAddr: 0x5418, symBinAddr: 0x100017084, symSize: 0x18 }
  - { offsetInCU: 0x8C9B, offset: 0x5D4CC, size: 0x8, addend: 0x0, symName: __ZNSt3__111__wrap_iterIP4ItemEmmB7v160006Ev, symObjAddr: 0x597C, symBinAddr: 0x10001709C, symSize: 0x20 }
  - { offsetInCU: 0x8CC1, offset: 0x5D4F2, size: 0x8, addend: 0x0, symName: __ZNSt3__111__wrap_iterIP4ItemEppB7v160006Ev, symObjAddr: 0x599C, symBinAddr: 0x1000170BC, symSize: 0x20 }
  - { offsetInCU: 0x8CE7, offset: 0x5D518, size: 0x8, addend: 0x0, symName: __ZNSt3__16threadC2IM12SharedBufferFvP4FileS4_EJRPS2_RS4_S9_EvEEOT_DpOT0_, symObjAddr: 0x59BC, symBinAddr: 0x1000170DC, symSize: 0x160 }
  - { offsetInCU: 0x8D9F, offset: 0x5D5D0, size: 0x8, addend: 0x0, symName: __ZNSt3__15tupleIJNS_10unique_ptrINS_15__thread_structENS_14default_deleteIS2_EEEEM12SharedBufferFvP4FileS8_EPS6_S8_S8_EEC1B7v160006IJS5_SA_RSB_RS8_SF_ELi0EEEDpOT_, symObjAddr: 0x5B50, symBinAddr: 0x10001723C, symSize: 0x54 }
  - { offsetInCU: 0x8ED3, offset: 0x5D704, size: 0x8, addend: 0x0, symName: __ZNSt3__110unique_ptrINS_5tupleIJNS0_INS_15__thread_structENS_14default_deleteIS2_EEEEM12SharedBufferFvP4FileS8_EPS6_S8_S8_EEENS3_ISC_EEEC1B7v160006ILb1EvEEPSC_, symObjAddr: 0x5BA4, symBinAddr: 0x100017290, symSize: 0x34 }
  - { offsetInCU: 0x8F16, offset: 0x5D747, size: 0x8, addend: 0x0, symName: __ZNKSt3__110unique_ptrINS_5tupleIJNS0_INS_15__thread_structENS_14default_deleteIS2_EEEEM12SharedBufferFvP4FileS8_EPS6_S8_S8_EEENS3_ISC_EEE3getB7v160006Ev, symObjAddr: 0x5CA0, symBinAddr: 0x100017354, symSize: 0x28 }
  - { offsetInCU: 0x8F3C, offset: 0x5D76D, size: 0x8, addend: 0x0, symName: __ZNSt3__110unique_ptrINS_5tupleIJNS0_INS_15__thread_structENS_14default_deleteIS2_EEEEM12SharedBufferFvP4FileS8_EPS6_S8_S8_EEENS3_ISC_EEE7releaseB7v160006Ev, symObjAddr: 0x5CC8, symBinAddr: 0x10001737C, symSize: 0x44 }
  - { offsetInCU: 0x8F71, offset: 0x5D7A2, size: 0x8, addend: 0x0, symName: __ZNSt3__110unique_ptrINS_5tupleIJNS0_INS_15__thread_structENS_14default_deleteIS2_EEEEM12SharedBufferFvP4FileS8_EPS6_S8_S8_EEENS3_ISC_EEED1B7v160006Ev, symObjAddr: 0x5D0C, symBinAddr: 0x1000173C0, symSize: 0x2C }
  - { offsetInCU: 0x8FA1, offset: 0x5D7D2, size: 0x8, addend: 0x0, symName: __ZNSt3__15tupleIJNS_10unique_ptrINS_15__thread_structENS_14default_deleteIS2_EEEEM12SharedBufferFvP4FileS8_EPS6_S8_S8_EEC2B7v160006IJS5_SA_RSB_RS8_SF_ELi0EEEDpOT_, symObjAddr: 0x5E5C, symBinAddr: 0x1000173EC, symSize: 0x54 }
  - { offsetInCU: 0x903B, offset: 0x5D86C, size: 0x8, addend: 0x0, symName: __ZNSt3__112__tuple_implINS_15__tuple_indicesIJLm0ELm1ELm2ELm3ELm4EEEEJNS_10unique_ptrINS_15__thread_structENS_14default_deleteIS4_EEEEM12SharedBufferFvP4FileSA_EPS8_SA_SA_EEC1B7v160006IJLm0ELm1ELm2ELm3ELm4EEJS7_SC_SD_SA_SA_EJEJEJS7_SC_RSD_RSA_SH_EEENS1_IJXspT_EEEENS_13__tuple_typesIJDpT0_EEENS1_IJXspT1_EEEENSJ_IJDpT2_EEEDpOT3_, symObjAddr: 0x5EB0, symBinAddr: 0x100017440, symSize: 0x54 }
  - { offsetInCU: 0x914C, offset: 0x5D97D, size: 0x8, addend: 0x0, symName: __ZNSt3__112__tuple_implINS_15__tuple_indicesIJLm0ELm1ELm2ELm3ELm4EEEEJNS_10unique_ptrINS_15__thread_structENS_14default_deleteIS4_EEEEM12SharedBufferFvP4FileSA_EPS8_SA_SA_EEC2B7v160006IJLm0ELm1ELm2ELm3ELm4EEJS7_SC_SD_SA_SA_EJEJEJS7_SC_RSD_RSA_SH_EEENS1_IJXspT_EEEENS_13__tuple_typesIJDpT0_EEENS1_IJXspT1_EEEENSJ_IJDpT2_EEEDpOT3_, symObjAddr: 0x5F04, symBinAddr: 0x100017494, symSize: 0x84 }
  - { offsetInCU: 0x925D, offset: 0x5DA8E, size: 0x8, addend: 0x0, symName: __ZNSt3__112__tuple_leafILm1EM12SharedBufferFvP4FileS3_ELb0EEC2B7v160006IS5_vEEOT_, symObjAddr: 0x5FBC, symBinAddr: 0x100017518, symSize: 0x2C }
  - { offsetInCU: 0x92A0, offset: 0x5DAD1, size: 0x8, addend: 0x0, symName: __ZNSt3__112__tuple_leafILm4EP4FileLb0EEC2B7v160006IRS2_vEEOT_, symObjAddr: 0x6030, symBinAddr: 0x100017544, symSize: 0x24 }
  - { offsetInCU: 0x92E3, offset: 0x5DB14, size: 0x8, addend: 0x0, symName: __ZNSt3__110unique_ptrINS_5tupleIJNS0_INS_15__thread_structENS_14default_deleteIS2_EEEEM12SharedBufferFvP4FileS8_EPS6_S8_S8_EEENS3_ISC_EEEC2B7v160006ILb1EvEEPSC_, symObjAddr: 0x627C, symBinAddr: 0x100017568, symSize: 0x44 }
  - { offsetInCU: 0x9326, offset: 0x5DB57, size: 0x8, addend: 0x0, symName: __ZNSt3__117__compressed_pairIPNS_5tupleIJNS_10unique_ptrINS_15__thread_structENS_14default_deleteIS3_EEEEM12SharedBufferFvP4FileS9_EPS7_S9_S9_EEENS4_ISD_EEEC1B7v160006IRSE_NS_16__value_init_tagEEEOT_OT0_, symObjAddr: 0x62C0, symBinAddr: 0x1000175AC, symSize: 0x3C }
  - { offsetInCU: 0x937E, offset: 0x5DBAF, size: 0x8, addend: 0x0, symName: __ZNSt3__117__compressed_pairIPNS_5tupleIJNS_10unique_ptrINS_15__thread_structENS_14default_deleteIS3_EEEEM12SharedBufferFvP4FileS9_EPS7_S9_S9_EEENS4_ISD_EEEC2B7v160006IRSE_NS_16__value_init_tagEEEOT_OT0_, symObjAddr: 0x62FC, symBinAddr: 0x1000175E8, symSize: 0x40 }
  - { offsetInCU: 0x93D6, offset: 0x5DC07, size: 0x8, addend: 0x0, symName: __ZNSt3__122__compressed_pair_elemIPNS_5tupleIJNS_10unique_ptrINS_15__thread_structENS_14default_deleteIS3_EEEEM12SharedBufferFvP4FileS9_EPS7_S9_S9_EEELi0ELb0EEC2B7v160006IRSE_vEEOT_, symObjAddr: 0x633C, symBinAddr: 0x100017628, symSize: 0x24 }
  - { offsetInCU: 0x9418, offset: 0x5DC49, size: 0x8, addend: 0x0, symName: __ZNSt3__122__compressed_pair_elemINS_14default_deleteINS_5tupleIJNS_10unique_ptrINS_15__thread_structENS1_IS4_EEEEM12SharedBufferFvP4FileS9_EPS7_S9_S9_EEEEELi1ELb1EEC2B7v160006ENS_16__value_init_tagE, symObjAddr: 0x6360, symBinAddr: 0x10001764C, symSize: 0x14 }
  - { offsetInCU: 0x944D, offset: 0x5DC7E, size: 0x8, addend: 0x0, symName: __ZNSt3__112__tuple_leafILm1EM12SharedBufferFvP4FileS3_ELb0EE3getB7v160006Ev, symObjAddr: 0x659C, symBinAddr: 0x100017818, symSize: 0x14 }
  - { offsetInCU: 0x9473, offset: 0x5DCA4, size: 0x8, addend: 0x0, symName: __ZNSt3__112__tuple_leafILm4EP4FileLb0EE3getB7v160006Ev, symObjAddr: 0x65D8, symBinAddr: 0x10001782C, symSize: 0x14 }
  - { offsetInCU: 0x9499, offset: 0x5DCCA, size: 0x8, addend: 0x0, symName: __ZNKSt3__117__compressed_pairIPNS_5tupleIJNS_10unique_ptrINS_15__thread_structENS_14default_deleteIS3_EEEEM12SharedBufferFvP4FileS9_EPS7_S9_S9_EEENS4_ISD_EEE5firstB7v160006Ev, symObjAddr: 0x65EC, symBinAddr: 0x100017840, symSize: 0x24 }
  - { offsetInCU: 0x94BF, offset: 0x5DCF0, size: 0x8, addend: 0x0, symName: __ZNKSt3__122__compressed_pair_elemIPNS_5tupleIJNS_10unique_ptrINS_15__thread_structENS_14default_deleteIS3_EEEEM12SharedBufferFvP4FileS9_EPS7_S9_S9_EEELi0ELb0EE5__getB7v160006Ev, symObjAddr: 0x6610, symBinAddr: 0x100017864, symSize: 0x14 }
  - { offsetInCU: 0x94E5, offset: 0x5DD16, size: 0x8, addend: 0x0, symName: __ZNSt3__117__compressed_pairIPNS_5tupleIJNS_10unique_ptrINS_15__thread_structENS_14default_deleteIS3_EEEEM12SharedBufferFvP4FileS9_EPS7_S9_S9_EEENS4_ISD_EEE5firstB7v160006Ev, symObjAddr: 0x6624, symBinAddr: 0x100017878, symSize: 0x24 }
  - { offsetInCU: 0x950B, offset: 0x5DD3C, size: 0x8, addend: 0x0, symName: __ZNSt3__122__compressed_pair_elemIPNS_5tupleIJNS_10unique_ptrINS_15__thread_structENS_14default_deleteIS3_EEEEM12SharedBufferFvP4FileS9_EPS7_S9_S9_EEELi0ELb0EE5__getB7v160006Ev, symObjAddr: 0x6648, symBinAddr: 0x10001789C, symSize: 0x14 }
  - { offsetInCU: 0x9531, offset: 0x5DD62, size: 0x8, addend: 0x0, symName: __ZNSt3__110unique_ptrINS_5tupleIJNS0_INS_15__thread_structENS_14default_deleteIS2_EEEEM12SharedBufferFvP4FileS8_EPS6_S8_S8_EEENS3_ISC_EEED2B7v160006Ev, symObjAddr: 0x665C, symBinAddr: 0x1000178B0, symSize: 0x30 }
  - { offsetInCU: 0x955B, offset: 0x5DD8C, size: 0x8, addend: 0x0, symName: __ZNSt3__110unique_ptrINS_5tupleIJNS0_INS_15__thread_structENS_14default_deleteIS2_EEEEM12SharedBufferFvP4FileS8_EPS6_S8_S8_EEENS3_ISC_EEE5resetB7v160006EPSC_, symObjAddr: 0x668C, symBinAddr: 0x1000178E0, symSize: 0x78 }
  - { offsetInCU: 0x959F, offset: 0x5DDD0, size: 0x8, addend: 0x0, symName: __ZNSt3__117__compressed_pairIPNS_5tupleIJNS_10unique_ptrINS_15__thread_structENS_14default_deleteIS3_EEEEM12SharedBufferFvP4FileS9_EPS7_S9_S9_EEENS4_ISD_EEE6secondB7v160006Ev, symObjAddr: 0x6704, symBinAddr: 0x100017958, symSize: 0x24 }
  - { offsetInCU: 0x95C5, offset: 0x5DDF6, size: 0x8, addend: 0x0, symName: __ZNKSt3__114default_deleteINS_5tupleIJNS_10unique_ptrINS_15__thread_structENS0_IS3_EEEEM12SharedBufferFvP4FileS8_EPS6_S8_S8_EEEEclB7v160006EPSC_, symObjAddr: 0x6728, symBinAddr: 0x10001797C, symSize: 0x4C }
  - { offsetInCU: 0x95F9, offset: 0x5DE2A, size: 0x8, addend: 0x0, symName: __ZNSt3__122__compressed_pair_elemINS_14default_deleteINS_5tupleIJNS_10unique_ptrINS_15__thread_structENS1_IS4_EEEEM12SharedBufferFvP4FileS9_EPS7_S9_S9_EEEEELi1ELb1EE5__getB7v160006Ev, symObjAddr: 0x6774, symBinAddr: 0x1000179C8, symSize: 0x14 }
  - { offsetInCU: 0x961F, offset: 0x5DE50, size: 0x8, addend: 0x0, symName: __ZNSt3__15tupleIJNS_10unique_ptrINS_15__thread_structENS_14default_deleteIS2_EEEEM12SharedBufferFvP4FileS8_EPS6_S8_S8_EED1Ev, symObjAddr: 0x6788, symBinAddr: 0x1000179DC, symSize: 0x2C }
  - { offsetInCU: 0x964C, offset: 0x5DE7D, size: 0x8, addend: 0x0, symName: __ZNSt3__15tupleIJNS_10unique_ptrINS_15__thread_structENS_14default_deleteIS2_EEEEM12SharedBufferFvP4FileS8_EPS6_S8_S8_EED2Ev, symObjAddr: 0x67B4, symBinAddr: 0x100017A08, symSize: 0x2C }
  - { offsetInCU: 0x9679, offset: 0x5DEAA, size: 0x8, addend: 0x0, symName: __ZNSt3__112__tuple_implINS_15__tuple_indicesIJLm0ELm1ELm2ELm3ELm4EEEEJNS_10unique_ptrINS_15__thread_structENS_14default_deleteIS4_EEEEM12SharedBufferFvP4FileSA_EPS8_SA_SA_EED1Ev, symObjAddr: 0x67E0, symBinAddr: 0x100017A34, symSize: 0x2C }
  - { offsetInCU: 0x96A6, offset: 0x5DED7, size: 0x8, addend: 0x0, symName: __ZNSt3__112__tuple_implINS_15__tuple_indicesIJLm0ELm1ELm2ELm3ELm4EEEEJNS_10unique_ptrINS_15__thread_structENS_14default_deleteIS4_EEEEM12SharedBufferFvP4FileSA_EPS8_SA_SA_EED2Ev, symObjAddr: 0x680C, symBinAddr: 0x100017A60, symSize: 0x2C }
  - { offsetInCU: 0x3F, offset: 0x5DF9A, size: 0x8, addend: 0x0, symName: __ZL11ITEM_FIELDS, symObjAddr: 0x3D580, symBinAddr: 0x100020540, symSize: 0x0 }
  - { offsetInCU: 0x2DAC, offset: 0x60D07, size: 0x8, addend: 0x0, symName: __ZNSt3__16chrono15time_point_castB7v160006INS0_8durationIxNS_5ratioILl1ELl1000EEEEENS0_12steady_clockENS2_IxNS3_ILl1ELl1000000000EEEEEEENS0_10time_pointIT0_T_EERKNS9_ISA_T1_EE, symObjAddr: 0x374, symBinAddr: 0x100017FDC, symSize: 0x48 }
  - { offsetInCU: 0x2DF3, offset: 0x60D4E, size: 0x8, addend: 0x0, symName: __ZNSt3__16chrono13duration_castB7v160006INS0_8durationIxNS_5ratioILl1ELl1000EEEEExNS3_ILl1ELl1000000000EEEEENS_9enable_ifIXsr13__is_durationIT_EE5valueES8_E4typeERKNS2_IT0_T1_EE, symObjAddr: 0x1CF0, symBinAddr: 0x100018044, symSize: 0x30 }
  - { offsetInCU: 0x6204, offset: 0x6415F, size: 0x8, addend: 0x0, symName: __ZL8ITEM_MIN, symObjAddr: 0x3D598, symBinAddr: 0x100020558, symSize: 0x0 }
  - { offsetInCU: 0x62F6, offset: 0x64251, size: 0x8, addend: 0x0, symName: __ZL8ITEM_MAX, symObjAddr: 0x3D5E0, symBinAddr: 0x1000205A0, symSize: 0x0 }
  - { offsetInCU: 0x63D9, offset: 0x64334, size: 0x8, addend: 0x0, symName: __ZNKSt3__16chrono15__duration_castINS0_8durationIxNS_5ratioILl1ELl1000000000EEEEENS2_IxNS3_ILl1ELl1000EEEEENS3_ILl1ELl1000000EEELb1ELb0EEclB7v160006ERKS5_, symObjAddr: 0x1D74, symBinAddr: 0x1000180C8, symSize: 0x4C }
  - { offsetInCU: 0x8170, offset: 0x660CB, size: 0x8, addend: 0x0, symName: _main, symObjAddr: 0xC8, symBinAddr: 0x100017D30, symSize: 0x2AC }
  - { offsetInCU: 0x8269, offset: 0x661C4, size: 0x8, addend: 0x0, symName: __ZNKSt3__16chrono10time_pointINS0_12steady_clockENS0_8durationIxNS_5ratioILl1ELl1000EEEEEE16time_since_epochB7v160006Ev, symObjAddr: 0x3BC, symBinAddr: 0x100018024, symSize: 0x20 }
  - { offsetInCU: 0x82AA, offset: 0x66205, size: 0x8, addend: 0x0, symName: __ZNKSt3__16chrono10time_pointINS0_12steady_clockENS0_8durationIxNS_5ratioILl1ELl1000000000EEEEEE16time_since_epochB7v160006Ev, symObjAddr: 0x1D20, symBinAddr: 0x100018074, symSize: 0x20 }
  - { offsetInCU: 0x82D0, offset: 0x6622B, size: 0x8, addend: 0x0, symName: __ZNSt3__16chrono10time_pointINS0_12steady_clockENS0_8durationIxNS_5ratioILl1ELl1000EEEEEEC1B7v160006ERKS6_, symObjAddr: 0x1D40, symBinAddr: 0x100018094, symSize: 0x34 }
  - { offsetInCU: 0x8308, offset: 0x66263, size: 0x8, addend: 0x0, symName: __ZNSt3__16chrono10time_pointINS0_12steady_clockENS0_8durationIxNS_5ratioILl1ELl1000EEEEEEC2B7v160006ERKS6_, symObjAddr: 0x1E3C, symBinAddr: 0x100018114, symSize: 0x24 }
  - { offsetInCU: 0x2894, offset: 0x6925A, size: 0x8, addend: 0x0, symName: __ZNSt3__1plB7v160006IcNS_11char_traitsIcEENS_9allocatorIcEEEENS_12basic_stringIT_T0_T1_EEOS9_SA_, symObjAddr: 0x400, symBinAddr: 0x1000187A8, symSize: 0x40 }
  - { offsetInCU: 0x28EC, offset: 0x692B2, size: 0x8, addend: 0x0, symName: __ZNSt3__1plB7v160006IcNS_11char_traitsIcEENS_9allocatorIcEEEENS_12basic_stringIT_T0_T1_EEOS9_PKS6_, symObjAddr: 0x440, symBinAddr: 0x1000187E8, symSize: 0x40 }
  - { offsetInCU: 0x2944, offset: 0x6930A, size: 0x8, addend: 0x0, symName: __ZNSt3__1plB7v160006IcNS_11char_traitsIcEENS_9allocatorIcEEEENS_12basic_stringIT_T0_T1_EEPKS6_OS9_, symObjAddr: 0x480, symBinAddr: 0x100018828, symSize: 0x44 }
  - { offsetInCU: 0x299C, offset: 0x69362, size: 0x8, addend: 0x0, symName: __ZNSt3__1plB7v160006IcNS_11char_traitsIcEENS_9allocatorIcEEEENS_12basic_stringIT_T0_T1_EEOS9_RKS9_, symObjAddr: 0x6FC, symBinAddr: 0x100018AA4, symSize: 0x40 }
  - { offsetInCU: 0x4846, offset: 0x6B20C, size: 0x8, addend: 0x0, symName: __ZN5TraceC2EbPKcS1_i, symObjAddr: 0x0, symBinAddr: 0x1000183DC, symSize: 0xB0 }
  - { offsetInCU: 0x48AA, offset: 0x6B270, size: 0x8, addend: 0x0, symName: __ZN5Trace6_traceENSt3__112basic_stringIcNS0_11char_traitsIcEENS0_9allocatorIcEEEE, symObjAddr: 0xB0, symBinAddr: 0x10001848C, symSize: 0x78 }
  - { offsetInCU: 0x48E6, offset: 0x6B2AC, size: 0x8, addend: 0x0, symName: __ZN5TraceC1EbPKcS1_i, symObjAddr: 0x15C, symBinAddr: 0x100018504, symSize: 0x58 }
  - { offsetInCU: 0x494A, offset: 0x6B310, size: 0x8, addend: 0x0, symName: __ZN5TraceC2EbPKcS1_iiii, symObjAddr: 0x1B4, symBinAddr: 0x10001855C, symSize: 0x24C }
  - { offsetInCU: 0x49D8, offset: 0x6B39E, size: 0x8, addend: 0x0, symName: __ZN5TraceC1EbPKcS1_iiii, symObjAddr: 0x4C4, symBinAddr: 0x10001886C, symSize: 0x70 }
  - { offsetInCU: 0x4A66, offset: 0x6B42C, size: 0x8, addend: 0x0, symName: __ZN5TraceC2EbPKcS1_iNSt3__112basic_stringIcNS2_11char_traitsIcEENS2_9allocatorIcEEEES8_S8_, symObjAddr: 0x534, symBinAddr: 0x1000188DC, symSize: 0x1C8 }
  - { offsetInCU: 0x4AF9, offset: 0x6B4BF, size: 0x8, addend: 0x0, symName: __ZN5TraceC1EbPKcS1_iNSt3__112basic_stringIcNS2_11char_traitsIcEENS2_9allocatorIcEEEES8_S8_, symObjAddr: 0x73C, symBinAddr: 0x100018AE4, symSize: 0x70 }
  - { offsetInCU: 0x4B8A, offset: 0x6B550, size: 0x8, addend: 0x0, symName: __ZN5TraceD2Ev, symObjAddr: 0x7AC, symBinAddr: 0x100018B54, symSize: 0x58 }
  - { offsetInCU: 0x4BB6, offset: 0x6B57C, size: 0x8, addend: 0x0, symName: __ZN5TraceD1Ev, symObjAddr: 0x810, symBinAddr: 0x100018BAC, symSize: 0x2C }
  - { offsetInCU: 0x4BE2, offset: 0x6B5A8, size: 0x8, addend: 0x0, symName: __ZNKSt3__112basic_stringIcNS_11char_traitsIcEENS_9allocatorIcEEE5c_strB7v160006Ev, symObjAddr: 0x83C, symBinAddr: 0x100018BD8, symSize: 0x24 }
  - { offsetInCU: 0x4C08, offset: 0x6B5CE, size: 0x8, addend: 0x0, symName: __Z6Randomm, symObjAddr: 0x860, symBinAddr: 0x100018BFC, symSize: 0x38 }
  - { offsetInCU: 0x4C34, offset: 0x6B5FA, size: 0x8, addend: 0x0, symName: __Z6Randommm, symObjAddr: 0x898, symBinAddr: 0x100018C34, symSize: 0x58 }
  - { offsetInCU: 0x4C6E, offset: 0x6B634, size: 0x8, addend: 0x0, symName: __Z9RoundDownmm, symObjAddr: 0x8F0, symBinAddr: 0x100018C8C, symSize: 0x30 }
  - { offsetInCU: 0x4CA9, offset: 0x6B66F, size: 0x8, addend: 0x0, symName: __Z7RoundUpmm, symObjAddr: 0x920, symBinAddr: 0x100018CBC, symSize: 0x6C }
  - { offsetInCU: 0x4CF2, offset: 0x6B6B8, size: 0x8, addend: 0x0, symName: __Z10IsPowerOf2m, symObjAddr: 0x98C, symBinAddr: 0x100018D28, symSize: 0x50 }
  - { offsetInCU: 0x4D1F, offset: 0x6B6E5, size: 0x8, addend: 0x0, symName: __Z3lsbm, symObjAddr: 0x9DC, symBinAddr: 0x100018D78, symSize: 0x30 }
  - { offsetInCU: 0x4D5A, offset: 0x6B720, size: 0x8, addend: 0x0, symName: __Z3msbm, symObjAddr: 0xA0C, symBinAddr: 0x100018DA8, symSize: 0x58 }
  - { offsetInCU: 0x4DB2, offset: 0x6B778, size: 0x8, addend: 0x0, symName: __Z4msbim, symObjAddr: 0xA64, symBinAddr: 0x100018E00, symSize: 0x5C }
  - { offsetInCU: 0x4E0A, offset: 0x6B7D0, size: 0x8, addend: 0x0, symName: __Z5YesNob, symObjAddr: 0xAC0, symBinAddr: 0x100018E5C, symSize: 0x38 }
  - { offsetInCU: 0x4E37, offset: 0x6B7FD, size: 0x8, addend: 0x0, symName: __Z5OkBadb, symObjAddr: 0xAF8, symBinAddr: 0x100018E94, symSize: 0x38 }
  - { offsetInCU: 0x4E64, offset: 0x6B82A, size: 0x8, addend: 0x0, symName: __ZNSt3__112basic_stringIcNS_11char_traitsIcEENS_9allocatorIcEEE6appendB7v160006ERKS5_, symObjAddr: 0xF98, symBinAddr: 0x100018ECC, symSize: 0x4C }
...
